Archive member included because of file (symbol)

drivers/net/sk98lin/libsk98lin.o(uboot_drv.o)
                              board/mv_ebu/common/libmv_ebu.o (skge_initialize)
drivers/net/sk98lin/libsk98lin.o(uboot_skb.o)
                              drivers/net/sk98lin/libsk98lin.o(uboot_drv.o) (alloc_skb)
drivers/net/sk98lin/libsk98lin.o(sky2.o)
                              drivers/net/sk98lin/libsk98lin.o(uboot_drv.o) (SkY2Xmit)
drivers/net/sk98lin/libsk98lin.o(skge.o)
                              drivers/net/sk98lin/libsk98lin.o(uboot_drv.o) (skge_probe)
drivers/net/sk98lin/libsk98lin.o(sky2le.o)
                              drivers/net/sk98lin/libsk98lin.o(sky2.o) (SkGeY2InitSingleLETable)
drivers/net/sk98lin/libsk98lin.o(skdim.o)
                              drivers/net/sk98lin/libsk98lin.o(skge.o) (SkDimModerate)
drivers/net/sk98lin/libsk98lin.o(skaddr.o)
                              drivers/net/sk98lin/libsk98lin.o(skge.o) (SkAddrInit)
drivers/net/sk98lin/libsk98lin.o(skgeinit.o)
                              drivers/net/sk98lin/libsk98lin.o(sky2.o) (SkGeRxCsum)
drivers/net/sk98lin/libsk98lin.o(skgesirq.o)
                              drivers/net/sk98lin/libsk98lin.o(sky2.o) (SkGeSirqIsr)
drivers/net/sk98lin/libsk98lin.o(sktwsi.o)
                              drivers/net/sk98lin/libsk98lin.o(skgeinit.o) (SkI2cWaitIrq)
drivers/net/sk98lin/libsk98lin.o(sklm80.o)
                              drivers/net/sk98lin/libsk98lin.o(sktwsi.o) (SkLm80ReadSensor)
drivers/net/sk98lin/libsk98lin.o(skqueue.o)
                              drivers/net/sk98lin/libsk98lin.o(skge.o) (SkEventInit)
drivers/net/sk98lin/libsk98lin.o(skrlmt.o)
                              drivers/net/sk98lin/libsk98lin.o(skgesirq.o) (SkRlmtEvent)
drivers/net/sk98lin/libsk98lin.o(sktimer.o)
                              drivers/net/sk98lin/libsk98lin.o(skdim.o) (SkTimerStop)
drivers/net/sk98lin/libsk98lin.o(skxmac2.o)
                              drivers/net/sk98lin/libsk98lin.o(skgesirq.o) (SkGmPhyRead)
drivers/net/sk98lin/libsk98lin.o(skgehwt.o)
                              drivers/net/sk98lin/libsk98lin.o(sktimer.o) (SkHwtInit)
/home/tigerg/Public/axp/uboot/2013Q2/toolchain/Marvell_toolchain_201301/armv7-marvell-linux-gnueabi-softfp_i686/bin/../lib/gcc/arm-marvell-linux-gnueabi/4.6.4/libgcc.a(_udivsi3.o)
                              arch/arm/cpu/armv7/pj4/libpj4.o (__aeabi_uidiv)
/home/tigerg/Public/axp/uboot/2013Q2/toolchain/Marvell_toolchain_201301/armv7-marvell-linux-gnueabi-softfp_i686/bin/../lib/gcc/arm-marvell-linux-gnueabi/4.6.4/libgcc.a(_divsi3.o)
                              board/mv_ebu/common/libmv_ebu.o (__aeabi_idiv)
/home/tigerg/Public/axp/uboot/2013Q2/toolchain/Marvell_toolchain_201301/armv7-marvell-linux-gnueabi-softfp_i686/bin/../lib/gcc/arm-marvell-linux-gnueabi/4.6.4/libgcc.a(_lshrdi3.o)
                              drivers/mtd/nand/libnand.o (__aeabi_llsr)
/home/tigerg/Public/axp/uboot/2013Q2/toolchain/Marvell_toolchain_201301/armv7-marvell-linux-gnueabi-softfp_i686/bin/../lib/gcc/arm-marvell-linux-gnueabi/4.6.4/libgcc.a(_ashrdi3.o)
                              board/mv_ebu/common/libmv_ebu.o (__aeabi_lasr)
/home/tigerg/Public/axp/uboot/2013Q2/toolchain/Marvell_toolchain_201301/armv7-marvell-linux-gnueabi-softfp_i686/bin/../lib/gcc/arm-marvell-linux-gnueabi/4.6.4/libgcc.a(_ashldi3.o)
                              board/mv_ebu/common/libmv_ebu.o (__aeabi_llsl)
/home/tigerg/Public/axp/uboot/2013Q2/toolchain/Marvell_toolchain_201301/armv7-marvell-linux-gnueabi-softfp_i686/bin/../lib/gcc/arm-marvell-linux-gnueabi/4.6.4/libgcc.a(_aeabi_uldivmod.o)
                              drivers/mmc/libmmc.o (__aeabi_uldivmod)
/home/tigerg/Public/axp/uboot/2013Q2/toolchain/Marvell_toolchain_201301/armv7-marvell-linux-gnueabi-softfp_i686/bin/../lib/gcc/arm-marvell-linux-gnueabi/4.6.4/libgcc.a(_dvmd_lnx.o)
                              /home/tigerg/Public/axp/uboot/2013Q2/toolchain/Marvell_toolchain_201301/armv7-marvell-linux-gnueabi-softfp_i686/bin/../lib/gcc/arm-marvell-linux-gnueabi/4.6.4/libgcc.a(_udivsi3.o) (__aeabi_idiv0)
/home/tigerg/Public/axp/uboot/2013Q2/toolchain/Marvell_toolchain_201301/armv7-marvell-linux-gnueabi-softfp_i686/bin/../lib/gcc/arm-marvell-linux-gnueabi/4.6.4/libgcc.a(bpabi.o)
                              /home/tigerg/Public/axp/uboot/2013Q2/toolchain/Marvell_toolchain_201301/armv7-marvell-linux-gnueabi-softfp_i686/bin/../lib/gcc/arm-marvell-linux-gnueabi/4.6.4/libgcc.a(_aeabi_uldivmod.o) (__gnu_uldivmod_helper)
/home/tigerg/Public/axp/uboot/2013Q2/toolchain/Marvell_toolchain_201301/armv7-marvell-linux-gnueabi-softfp_i686/bin/../lib/gcc/arm-marvell-linux-gnueabi/4.6.4/libgcc.a(_divdi3.o)
                              /home/tigerg/Public/axp/uboot/2013Q2/toolchain/Marvell_toolchain_201301/armv7-marvell-linux-gnueabi-softfp_i686/bin/../lib/gcc/arm-marvell-linux-gnueabi/4.6.4/libgcc.a(bpabi.o) (__divdi3)
/home/tigerg/Public/axp/uboot/2013Q2/toolchain/Marvell_toolchain_201301/armv7-marvell-linux-gnueabi-softfp_i686/bin/../lib/gcc/arm-marvell-linux-gnueabi/4.6.4/libgcc.a(_udivdi3.o)
                              /home/tigerg/Public/axp/uboot/2013Q2/toolchain/Marvell_toolchain_201301/armv7-marvell-linux-gnueabi-softfp_i686/bin/../lib/gcc/arm-marvell-linux-gnueabi/4.6.4/libgcc.a(bpabi.o) (__udivdi3)

Memory Configuration

Name             Origin             Length             Attributes
*default*        0x00000000         0xffffffff

Linker script and memory map

                0x00000000                . = 0x0
                0x00000000                . = ALIGN (0x4)

.text           0x00000000    0x8b39c
 arch/arm/cpu/armv7/start.o(.text)
 .text          0x00000000      0x5e0 arch/arm/cpu/armv7/start.o
                0x00000000                _start
                0x00000040                _end_vect
                0x00000040                _TEXT_BASE
                0x00000044                _bss_start_ofs
                0x00000048                _image_copy_end_ofs
                0x0000004c                _bss_end_ofs
                0x00000050                _end_ofs
                0x00000054                IRQ_STACK_START_IN
                0x000000f0                relocate_code
                0x00000200                cpu_init_cp15
                0x00000500                armv7_mmu_cache_flush
 *(.text)
 .text          0x000005e0      0xe64 api/libapi.o
                0x00000c10                syscall
                0x00000c78                api_init
                0x00000e10                platform_set_mr
                0x00000e70                display_get_info
                0x00000e80                display_draw_bitmap
                0x00000e90                display_clear
                0x00000e94                dev_open_net
                0x00000ec8                dev_close_net
                0x00000ef0                dev_enum_net
                0x00000f34                dev_write_net
                0x00000f40                dev_read_net
                0x00001130                dev_stor_init
                0x000011d0                dev_enum_reset
                0x00001208                dev_enum_storage
                0x00001314                dev_open_stor
                0x00001348                dev_close_stor
                0x00001350                dev_read_stor
                0x000013fc                platform_sys_info
 .text          0x00001444      0x324 arch/arm/cpu/armv7/libarmv7.o
                0x000015fc                invalidate_dcache_all
                0x00001610                flush_dcache_all
                0x00001624                invalidate_dcache_range
                0x00001648                flush_dcache_range
                0x0000166c                arm_init_before_mmu
                0x00001698                flush_cache
                0x000016a0                invalidate_icache_all
                0x000016b8                __v7_outer_cache_enable
                0x000016b8                v7_outer_cache_enable
                0x000016bc                v7_outer_cache_disable
                0x000016bc                __v7_outer_cache_disable
                0x000016c0                __v7_outer_cache_flush_all
                0x000016c0                v7_outer_cache_flush_all
                0x000016c4                v7_outer_cache_inval_all
                0x000016c4                __v7_outer_cache_inval_all
                0x000016c8                v7_outer_cache_flush_range
                0x000016c8                __v7_outer_cache_flush_range
                0x000016cc                __v7_outer_cache_inval_range
                0x000016cc                v7_outer_cache_inval_range
                0x000016d0                save_boot_params_default
                0x000016d0                save_boot_params
                0x000016d4                cleanup_before_linux
                0x000016fc                sdelay
                0x00001708                sr32
                0x00001730                wait_on_value
 .text          0x00001768      0x1ec arch/arm/cpu/armv7/pj4/libpj4.o
                0x00001768                set_timer
                0x00001778                reset_timer_masked
                0x000017a8                reset_timer
                0x000017ac                timer_init
                0x00001808                __udelay
                0x0000188c                get_timer_masked
                0x000018d8                get_timer
                0x000018f0                udelay_masked
                0x00001938                get_ticks
                0x0000194c                get_tbclk
 .text          0x00001954      0xd58 arch/arm/lib/libarm.o
                0x000019ac                coloured_LED_init
                0x000019ac                __coloured_LED_init
                0x000019b0                __red_led_on
                0x000019b0                red_led_on
                0x000019b4                __red_led_off
                0x000019b4                red_led_off
                0x000019b8                green_led_on
                0x000019b8                __green_led_on
                0x000019bc                green_led_off
                0x000019bc                __green_led_off
                0x000019c0                yellow_led_on
                0x000019c0                __yellow_led_on
                0x000019c4                __yellow_led_off
                0x000019c4                yellow_led_off
                0x000019c8                blue_led_on
                0x000019c8                __blue_led_on
                0x000019cc                __blue_led_off
                0x000019cc                blue_led_off
                0x000019d0                __dram_init_banksize
                0x000019ec                board_init_r
                0x00001af4                hang
                0x00001b08                board_init_f
                0x00001c40                arch_lmb_reserve
                0x00001c64                do_bootm_linux
                0x00002280                __flush_cache
                0x00002284                __flush_dcache_all
                0x00002290                __enable_caches
                0x000023e4                __arm_init_before_mmu
                0x000023e8                icache_enable
                0x000023f0                icache_disable
                0x000023f8                icache_status
                0x00002404                dcache_enable
                0x0000240c                dcache_disable
                0x00002414                dcache_status
                0x00002420                interrupt_init
                0x0000243c                enable_interrupts
                0x00002440                disable_interrupts
                0x00002448                bad_mode
                0x00002458                show_regs
                0x0000259c                do_undefined_instruction
                0x000025bc                do_software_interrupt
                0x000025dc                do_prefetch_abort
                0x000025fc                do_data_abort
                0x0000261c                do_not_used
                0x0000263c                do_fiq
                0x0000265c                do_irq
                0x0000267c                do_reset
 .text          0x000026ac    0x26f9c board/mv_ebu/common/libmv_ebu.o
                0x000026ac                mvCharToHex
                0x000026ec                mvCharToDigit
                0x00002700                mvMacStrToHex
                0x00002758                mvMacHexToStr
                0x000027a0                mvSizePrint
                0x000028b8                mvHexToBin
                0x00002914                mvAsciiToHex
                0x0000295c                mvBinToHex
                0x000029b0                mvBinToAscii
                0x00002a04                mvLog2
                0x00002a30                mvWinOverlapTest
                0x00002a38                mvWinWithinWinTest
                0x00002aec                mvOsCpuRevGet
                0x00002af8                mvOsCpuPartGet
                0x00002b04                mvOsCpuArchGet
                0x00002b10                mvOsCpuVarGet
                0x00002b1c                mvOsCpuAsciiGet
                0x00002b28                mvOsCpuThumbEEGet
                0x00002b34                mvOsIoVirtToPhy
                0x00002b3c                mvOsIoUncachedMalloc
                0x00002b58                mvOsIoUncachedFree
                0x00002b60                mvOsIoUncachedAlignedMalloc
                0x00002ba4                mvOsIoUncachedAlignedFree
                0x00002bac                mvOsIoCachedMalloc
                0x00002bc8                mvOsIoCachedFree
                0x00002bd0                mvOsCacheFlush
                0x00002bd8                mvOsCacheInvalidate
                0x00002be0                mvOsRand
                0x00002be8                mvOsStrCmp
                0x00002c4c                mvSwapShort
                0x00002c50                mvSwapWord
                0x00002c54                mvCntmrHalInit
                0x00002c78                mvCntmrLoad
                0x00002ce8                mvCntmrRead
                0x00002d0c                mvCntmrReadDiff
                0x00002d34                mvCntmrWrite
                0x00002d58                mvCntmrCtrlSet
                0x00002f54                mvCntmrCtrlGet
                0x000030bc                mvCntmrEnable
                0x00003120                mvCntmrDisable
                0x00003184                mvCntmrStart
                0x000031c8                mvCntmrIntClear
                0x00003224                mvCntmrFrqGet
                0x000032b4                mvDramIfHwSizeGet
                0x00003330                mvDramIfHwCsSizeGet
                0x00003354                mvDramIfWinGet
                0x0000345c                mvDramIfWinSet
                0x00003534                mvDramIfBankSizeGet
                0x00003564                mvDramIfSizeGet
                0x00003594                mvDramIfWinEnable
                0x00003638                mvDdrPhyRegRead
                0x0000366c                mvDdrPhyRegWrite
                0x0000369c                mvDramIfSingleBitErrThresholdSet
                0x000036cc                mvEthPhyHalInit
                0x000036f0                mvEthPhyRegRead
                0x00003804                rdPhy
                0x00003848                mvEthPhyRegPrint
                0x00003898                mvEthPhyRegWrite
                0x00003af4                mvEthPhyReset
                0x00003b80                mvEthPhyRestartAN
                0x00003c1c                mvEthPhyDisableAN
                0x00003d04                mvEthPhyLoopback
                0x00003e68                mvEthPhyCheckLink
                0x00003ef8                mvEthPhyPrintStatus
                0x00003fec                mvEthPhyAdvertiseSet
                0x00004060                mvEthPhyAdvertiseGet
                0x000040b4                mvEthE1111PhyBasicInit
                0x00004148                mvEthE1112PhyBasicInit
                0x000041f8                mvEthE1310PhyBasicInit
                0x000042b8                mvEthE1116PhyBasicInit
                0x0000438c                mvEthE3016PhyBasicInit
                0x00004428                mvEthE1011PhyBasicInit
                0x000044a4                mvEthE1112PhyPowerDown
                0x000044ac                mvEthE1112PhyPowerUp
                0x000044b4                mvEth1145PhyBasicInit
                0x00004558                mvEthSgmiiToCopperPhyBasicInit
                0x000045c0                mvEth1121PhyBasicInit
                0x00004680                mvEthInternalGEPhyBasicInit
                0x00004684                mvEth1540Y0PhyBasicInit
                0x00004ff8                mvEth1540A1PhyBasicInit
                0x00005410                mvEth1540A0PhyBasicInit
                0x00005afc                mvEth1540PhyBasicInit
                0x00005bcc                mvEth1340PhyBasicInit
                0x00005c84                mvEthE1512PhyBasicInit
                0x00005d9c                mvEthPhyInit
                0x00005fd8                mvEthPhyAddGet
                0x00006004                mvGppInit
                0x00006028                mvGppTypeSet
                0x00006094                mvGppBlinkEn
                0x000060c0                mvGppPolaritySet
                0x000060ec                mvGppPolarityGet
                0x00006110                mvGppValueGet
                0x0000612c                mvGppValueSet
                0x000061e4                mvGppAtomicValueClear
                0x00006234                mvGppAtomicValueSet
                0x00006284                mvPexModeGet
                0x00006398                mvPexMasterEnable
                0x00006448                mvPexLocalBusNumSet
                0x0000653c                mvPexLocalBusNumGet
                0x000065d4                mvPexLocalDevNumSet
                0x000066cc                mvPexLocalDevNumGet
                0x00006754                mvPexConfigWrite
                0x00006990                mvPexConfigRead
                0x00006c08                mvPexSlaveEnable
                0x00006ca8                mvPexPhyRegRead
                0x00006d0c                mvPexPhyRegWrite
                0x00006d64                mvPexActiveStateLinkPMEnable
                0x00006ea4                mvPexForceX1
                0x00006f50                mvPexIfEnable
                0x000071cc                mvPexPhyPowerDown
                0x000071f8                mvPexInit
                0x000073d0                mvPexBarSet
                0x000076d0                mvPexBarGet
                0x000078d4                mvPexBarEnable
                0x00007a20                pexWinRegInfoGet
                0x00007d1c                mvPexTargetWinRemapEnable
                0x00007d78                mvPexTargetWinRemap
                0x00007e38                mvPexTargetWinRead
                0x00007eec                mvPexTargetWinEnable
                0x00007fe0                mvPexTargetWinWrite
                0x000081c8                mvPexWinInit
                0x00008410                pexBarNameGet
                0x0000842c                mvRtcTimeSet
                0x00008590                mvRtcTimeGet
                0x0000861c                mvRtcInit
                0x00009cfc                waitForBusyAfterHReset
                0x00009d58                _setActivePMPort
                0x00009f80                disableSaDevInterrupts
                0x0000a9b0                mvSataShutdownAdapter
                0x0000a9d8                mvSataReadReg
                0x0000a9f0                mvSataWriteReg
                0x0000aa00                mvSataConfigureChannel
                0x0000aaf0                mvSataRemoveChannel
                0x0000ab18                mvSataIsStorageDeviceConnected
                0x0000acd8                mvSataChannelHardReset
                0x0000addc                mvSataSetFBSMode
                0x0000ae4c                mvSataConfigEdmaMode
                0x0000b154                mvSataEnableChannelDma
                0x0000b19c                mvSataDisableChannelDma
                0x0000b1d4                mvSataFlushDmaQueue
                0x0000b22c                mvSataNumOfDmaCommands
                0x0000b25c                mvSataGetNumOfPortQueuedCommands
                0x0000b2a8                mvSataSetIntCoalParams
                0x0000b3e8                mvSataSetChannelPhyParams
                0x0000b528                mvSataChannelPhyShutdown
                0x0000b5c4                mvSataInitAdapter
                0x0000c14c                mvSataChannelPhyPowerOn
                0x0000c23c                mvSataChannelFarLoopbackDiagnostic
                0x0000c3f0                mvSataQueueCommand
                0x0000c5a8                mvSataSetInterruptsScheme
                0x0000c5bc                mvSataCheckPendingInterrupt
                0x0000c5f4                mvSataInterruptServiceRoutine
                0x0000d234                mvSataMaskAdapterInterrupt
                0x0000d254                mvSataUnmaskAdapterInterrupt
                0x0000d274                mvSataEnableStaggeredSpinUpAll
                0x0000d3c8                mvSataEnableStaggeredSpinUp
                0x0000d430                mvSataDisableStaggeredSpinUp
                0x0000d4a8                mvSataDisableStaggeredSpinUpAll
                0x0000d4f8                mvSataSetInterfaceSpeed
                0x0000d684                mvSataGetInterfaceSpeed
                0x0000d6fc                mvSataSetInterfacePowerState
                0x0000d7e0                mvSataGetInterfacePowerState
                0x0000d850                mvSata60X1B2CheckDevError
                0x0000d8fc                mvSataIfD2HReceived
                0x0000d948                mvSataWinRead
                0x0000d9ec                mvSataWinWrite
                0x0000db4c                mvSataWinInit
                0x0000dbec                waitWhileStorageDevIsBusy
                0x0000dc4c                waitWhileStorageDevIsBusy_88SX60X1
                0x0000dcec                waitForDRQ
                0x0000dd4c                enableStorageDevInterrupt
                0x0000dd7c                disableStorageDevInterrupt
                0x0000ddac                mvStorageDevATAIdleImmediate
                0x0000de40                _startSoftResetDevice
                0x0000de80                _isDeviceBsyBitOff
                0x0000dea4                mvStorageDevATAStartSoftResetDevice
                0x0000def4                waitForDRQToClear
                0x0000df54                executeNonUDMACommand
                0x0000e398                mvStorageDevATAExecuteNonUDMACommand
                0x0000e434                mvStorageDevATASetFeatures
                0x0000e490                mvStorageDevATAIdentifyDevice
                0x0000e558                dumpAtaDeviceRegisters
                0x0000e634                _PMAccessReg
                0x0000e75c                mvStorageIsDeviceBsyBitOff
                0x0000e7b8                _doSoftReset
                0x0000e848                mvStorageDevATASoftResetDevice
                0x0000e8c0                mvPMDevReadReg
                0x0000e990                mvPMDevWriteReg
                0x0000e9fc                mvPMLinkUp
                0x0000ea64                mvPMDevEnableStaggeredSpinUp
                0x0000ea6c                mvPMDevEnableStaggeredSpinUpAll
                0x0000eb90                mvPMDevEnableStaggeredSpinUpPort
                0x0000ec08                mvStorageDevExecutePIO
                0x0000ecbc                mvStorageDevSetDeviceType
                0x0000ecdc                mvStorageDevGetDeviceType
                0x0000ecf8                mvSpi16bitDataTxRx
                0x0000ed7c                mvSpiCsSet
                0x0000edd0                mvSpiIfConfigSet
                0x0000ee24                mvSpiTimingParamsSet
                0x0000ee70                mvSpiBaudRateSet
                0x0000ef5c                mvSpiParamsSet
                0x0000efe4                mvSpiCsAssert
                0x0000f01c                mvSpiCsDeassert
                0x0000f03c                mvSpiInit
                0x0000f120                mvSpi8bitDataTxRx
                0x0000f20c                mvSpiRead
                0x0000f308                mvSpiWrite
                0x0000f404                mvSpiReadWrite
                0x0000f524                mvSpiReadAndWrite
                0x0000f5a0                mvSpiWriteThenWrite
                0x0000f65c                mvSpiWriteThenRead
                0x0000f8ec                mvTwsiStartBitSet
                0x0000f9c8                mvTwsiStopBitSet
                0x0000fa8c                mvTwsiInit
                0x0000fc6c                mvTwsiAddrSet
                0x0000fecc                mvTwsiRead
                0x00010188                mvTwsiWrite
                0x000102d0                mvUartInit
                0x00010310                mvUartPutc
                0x00010330                mvUartGetc
                0x00010350                mvUartTstc
                0x00010520                mvUsbGetCapRegAddr
                0x00010534                mvUsbPllInit
                0x00010584                mvUsbHalInit
                0x00010af4                mvUsbPowerDown
                0x00010b48                mvUsbPowerUp
                0x00010b94                mvUsbRegs
                0x00010c94                mvUsbCoreRegs
                0x00010fe8                mvUsbWinRead
                0x000110a8                mvUsbWinWrite
                0x0001128c                mvUsbWinInit
                0x00011334                mvXorCtrlSet
                0x00011390                mvXorEccCurrTimerGet
                0x000113b0                mvXorStateGet
                0x00011408                mvXorTransfer
                0x00011504                mvXorMemInit
                0x0001163c                mvXorEccClean
                0x000117b0                mvXorCommandSet
                0x00011904                mvXorHalInit
                0x00011944                mvXorOverrideSet
                0x00011a28                mvXorOverrideDisable
                0x00011a5c                xorSetSrcBurstLimit
                0x00011ab0                mvXorTargetWinRead
                0x00011cc0                mvXorTargetWinWrite
                0x00011e64                mvXorTargetWinEnable
                0x00011f5c                mvXorWinInit
                0x00012004                mvXorProtWinSet
                0x000120a8                mvXorPciRemap
                0x000120ec                mvPciIfInit
                0x00012134                mvPciIfConfigRead
                0x00012138                mvPciIfConfigWrite
                0x0001213c                mvPciIfMasterEnable
                0x00012140                mvPciIfSlaveEnable
                0x00012144                mvPciIfLocalBusNumSet
                0x00012148                mvPciIfLocalBusNumGet
                0x0001214c                mvPciIfLocalDevNumSet
                0x00012150                mvPciIfLocalDevNumGet
                0x00012154                mvPciIfTypeGet
                0x0001215c                mvPciRealIfNumGet
                0x00012160                mvPciClassNameGet
                0x00012a88                mvPciScan
                0x00012bbc                mvSdmmcWinRead
                0x00012c60                mvSdmmcWinWrite
                0x00012dc0                mvSdmmcWinInit
                0x00012eb4                setNANDClock
                0x00012f08                mvNfcSelectChip
                0x00012f14                mvNfcDataLength
                0x00012fb0                mvNfcTransferDataLength
                0x0001311c                mvNfcCommandPio
                0x00013774                mvNfcStatusGet
                0x00013824                mvNfcIntrSet
                0x000138a4                mvNfcIntrToStatusConvert
                0x00013908                mvNfcReadWrite
                0x000139dc                mvNfcReadWritePio
                0x00013a34                mvNfcAddress2RowConvert
                0x00013aa8                mvNfcAddress2BlockConvert
                0x00013ae4                mvNfcFlashModelGet
                0x00013b0c                mvNfcFlashPageSizeGet
                0x00013bc0                mvNfcFlashBlockSizeGet
                0x00013c20                mvNfcFlashBlockNumGet
                0x00013c64                mvNfcFlashIdGet
                0x00013ca8                mvNfcUnitStateStore
                0x00013d2c                mvNfcReset
                0x00013dac                mvNfcInit
                0x00014714                mvNfcEccModeSet
                0x00014724                mvNfcBadBlockPageNumber
                0x00014740                mvSysDdrSpdRead
                0x00014780                mvSysDdrSpdWrite
                0x000147c0                mvSysEthPhyInit
                0x00014840                mvSysPexInit
                0x000148e0                mvSysSataWinInit
                0x00014918                mvSysSpiInit
                0x0001494c                mvSysSpiMppConfig
                0x00014954                mvSysUsbInit
                0x000149e8                mvSysSDmmcWinInit
                0x00014a20                mvSysCntmrInit
                0x00014a50                mvSysXorInit
                0x00014a9c                mvCtrlAttribGet
                0x00014ac0                mvCtrlAttribSet
                0x00014ae4                mvCtrlTargetGet
                0x00014b34                mvCtrlTargetByWinInfoGet
                0x00014b84                mvCtrlAddrWinMapBuild
                0x00014ed8                mvCtrlAddrWinInfoGet
                0x00014f7c                mvCtrlGetCpuNum
                0x00014f90                mvCtrlGetQuadNum
                0x00014fa4                mvCtrlMppRegGet
                0x00014fb8                mvCtrlSdioSupport
                0x00014fc0                mvCtrlTdmSupport
                0x00014fc8                mvCtrlTdmMaxGet
                0x00014fd0                mvCtrlTdmUnitTypeGet
                0x00014fd8                mvCtrlTdmUnitIrqGet
                0x00014fe0                mvCtrlModelGet
                0x00015014                mvCtrlUsbMaxGet
                0x00015034                mvCtrlXorMaxUnitGet
                0x00015048                mvCtrlXorMaxChanGet
                0x0001505c                mvCtrlSataMaxPortGet
                0x00015070                mvCtrlEthMaxCPUsGet
                0x00015084                mvCtrlEthMaxPortGet
                0x00015108                mvCtrlPexMaxUnitGet
                0x00015194                mvCtrlPexMaxIfGet
                0x00015218                mvCtrlDevFamilyIdGet
                0x00015284                mvCtrlTargetNameGet
                0x000152a0                ctrlSizeToReg
                0x00015304                ctrlRegToSize
                0x0001536c                ctrlSizeRegRoundUp
                0x000153b8                mvCtrlIsBootFromNOR
                0x000153d4                mvCtrlIsBootFromSPI
                0x000153f4                mvCtrlIsBootFromNAND
                0x00015418                mvCtrlPwrClckSet
                0x000155cc                mvCtrlPwrClckGet
                0x000157e8                mvCtrlAddrDecShow
                0x00015afc                mvCtrlRevGet
                0x00015b58                mvCtrlModelRevGet
                0x00015b74                mvCtrlNameGet
                0x00015bd8                mvCtrlModelRevNameGet
                0x00015e3c                mvCtrlIsValidSatR
                0x00015f14                mvCtrlPwrMemSet
                0x000160b8                mvCtrlPwrMemGet
                0x000161e0                mvCtrlSerdesMaxLinesGet
                0x0001626c                mvCtrlDDRBudWidth
                0x00016288                mvCtrlDDRThruXbar
                0x000162a0                mvCtrlDDRECC
                0x000162b4                mvCtrlSerdesPhyConfig
                0x000165a4                mvCtrlEnvInit
                0x000166a4                mvCtrlGetJuncTemp
                0x00016778                mvCtrlSramInit
                0x00016a08                mvAhbToMbusInit
                0x00016a10                mvAhbToMbusWinGet
                0x00016b1c                mvAhbToMbusWinTargetGet
                0x00016bb8                mvAhbToMbusWinAvailGet
                0x00016c1c                mvAhbToMbusWinEnable
                0x00016cf4                mvAhbToMbusWinSet
                0x00016e58                mvAhbToMbusWinRemap
                0x00016f1c                mvAhbToMbusWinTargetSwap
                0x00017198                mvAhbToMbusAddDecShow
                0x00017260                mvCpuIfVerify
                0x00017308                mvCpuIfDramInit
                0x000173a0                mvCpuIfTargetWinGet
                0x00017504                mvCpuIfTargetWinSet
                0x00017610                mvCpuIfTargetWinEnable
                0x000176fc                mvCpuIfInitForCpu
                0x000178a4                mvCpuIfInit
                0x000178bc                mvCpuIfTargetWinSizeGet
                0x00017918                mvCpuIfTargetWinBaseLowGet
                0x00017978                mvCpuIfTargetWinBaseHighGet
                0x000179d4                mvCpuIfSramWinDisable
                0x000179f8                mvCpuIfPexRemap
                0x00017a70                mvCpuIfTargetOfBaseAddressGet
                0x00017af0                mvCpuIfAddDecShow
                0x00017bd8                mvCpuIfLvdsPadsEnable
                0x00017c18                mvCpuPclkGet
                0x00017ca0                mvCpuL2ClkGet
                0x00017d68                mvCpuNameGet
                0x00017e6c                mvCpuIfPrintSystemConfig
                0x00018060                whoAmI
                0x0001806c                mvDevIfPramSet
                0x00018168                mvDevPramGet
                0x000181fc                mvDevWidthGet
                0x0001821c                mvDevNandDevCsSet
                0x000182ac                mvBoardSpecInitGet
                0x000182b4                mvBoardDebugLedNumGet
                0x000182c8                mvBoardTdmSpiModeGet
                0x000182d0                mvBoardIdSet
                0x000182ec                mvBoardIdGet
                0x000182fc                mvBoardTwsiAddrGet
                0x00018364                mvBoardTwsiAddrTypeGet
                0x00018448                mvBoardGetDeviceBaseAddr
                0x00018470                boardGetDevCSNum
                0x000184bc                mvBoardGetDeviceWinSize
                0x00018510                mvBoardGetDeviceWidth
                0x0001855c                mvBoardNandWidthGet
                0x000185b0                mvBoardGetDeviceBusWidth
                0x000185fc                mvBoardGetDevicesNumber
                0x00018668                mvBoardTdmSpiCsGet
                0x000186d0                mvBoardTdmDevicesCountGet
                0x0001871c                mvBoardGppConfigGet
                0x000187a8                mvBoardMppGet
                0x00018808                mvBoardGpioIntMaskGet
                0x00018884                mvBoarGpioPinNumGet
                0x00018904                mvBoardUSBVbusEnGpioPinGet
                0x00018910                mvBoardUSBVbusGpioPinGet
                0x0001891c                mvBoardSDIOGpioPinGet
                0x00018938                mvBoardResetGpioPinGet
                0x00018944                mvBoardReset
                0x000189c4                mvBoardDebugLed
                0x00018adc                mvBoardSysClkGet
                0x00018ba0                mvBoardTclkGet
                0x00018be4                mvBoardPhyLinkCryptPortAddrGet
                0x00018c30                mvBoardQuadPhyAddr0Get
                0x00018c7c                mvBoardPhyAddrGet
                0x00018cc8                mvBoardSwitchCpuPortGet
                0x00018d28                mvBoardIsPortInSgmii
                0x00018d9c                mvBoardNameGet
                0x00018e0c                mvBoardRevGet
                0x00018e20                mvBoardModelGet
                0x00018e34                mvBoardEnvInit
                0x00018fac                mvBoardTwsiSatRGet
                0x00019054                mvBoardTwsiSatRSet
                0x000190fc                mvBoardFabFreqGet
                0x0001916c                mvBoardFabFreqSet
                0x0001922c                mvBoardCpuFreqGet
                0x0001929c                mvBoardCpuFreqSet
                0x0001939c                mvBoardBootDevGet
                0x000193e0                mvBoardBootDevSet
                0x00019448                mvBoardBootDevWidthGet
                0x00019488                mvBoardBootDevWidthSet
                0x000194f4                mvBoardCpu0EndianessGet
                0x00019530                mvBoardCpu0EndianessSet
                0x00019590                mvBoardL2SizeGet
                0x000195fc                mvBoardL2SizeSet
                0x00019690                mvBoardCpuCoresNumGet
                0x00019724                mvBoardCpuCoresNumSet
                0x000197c8                mvBoardConfIdSet
                0x000197ec                mvBoardConfIdGet
                0x00019814                mvBoardPexCapabilitySet
                0x00019864                mvBoardPexCapabilityGet
                0x000198d8                mvBoardPexModeSet
                0x00019928                mvBoardPexModeGet
                0x00019954                mvBoardDramEccSet
                0x000199b4                mvBoardDramEccGet
                0x000199ec                mvBoardDramBusWidthSet
                0x00019a4c                mvBoardDramBusWidthGet
                0x00019a84                mvBoardAltFabFreqGet
                0x00019ac0                mvBoardAltFabFreqSet
                0x00019af8                mvBoardMppModulesScan
                0x00019bc0                mvBoardOtherModulesScan
                0x00019d60                mvBoardIsPexModuleConnected
                0x00019d94                mvBoardIsSetmModuleConnected
                0x00019dc8                mvBoardIsSwitchModuleConnected
                0x00019df8                mvBoardMacSpeedGet
                0x00019e60                mvBoardIsLvdsModuleConnected
                0x00019e94                mvBoardOtherModuleTypePrint
                0x00019eec                mvBoardIsLcdDviModuleConnected
                0x00019f2c                mvBoardIsGMIIModuleConnected
                0x00019f6c                mvBoardMppModuleTypePrint
                0x00019fe8                mvBoardIsPortInGmii
                0x0001a00c                mvBoardIsPortInRgmii
                0x0001a024                mvBoardTwsiMuxChannelSet
                0x0001a0c4                mvBoardTwsiReadByteThruMux
                0x0001a100                mvBoardSerdesZ1ASupport
                0x0001a114                mvBoardSmiScanModeGet
                0x0001a160                mvBoardSledCpuNumGet
                0x0001a174                mvBoardPexInfoGet
                0x0001a19c                mvBoardIsGbEPortConnected
                0x0001a20c                serial_init
                0x0001a254                serial_putc
                0x0001a280                serial_getc
                0x0001a294                serial_tstc
                0x0001a2a4                serial_setbrg
                0x0001a2e4                serial_puts
                0x0001a6ac                orion_nfc_wait_for_completion_timeout
                0x0001b240                board_nand_init
                0x0001b5e0                rtc_get
                0x0001b640                rtc_set
                0x0001b6bc                rtc_reset
                0x0001b790                mapPci_cmd
                0x0001b878                se_cmd
                0x0001b944                me_cmd
                0x0001b9b0                scanPci
                0x0001bc54                sp_cmd
                0x0001bd64                mv_mem_ctrl_dev
                0x0001be94                pci_skip_dev
                0x0001be9c                pci_init_board
                0x0001c380                spi_flash_init
                0x0001c43c                mvSataEventNotify
                0x0001c550                do_diskboot
                0x0001c86c                mvGetSataDeviceType
                0x0001cd34                mvGetPMDeviceInfo
                0x0001ce28                InitChannel
                0x0001ce70                ide_init
                0x0001d6a4                ide_get_dev
                0x0001d6b8                ide_read_write
                0x0001dbbc                ide_read
                0x0001dbec                ide_write
                0x0001dc1c                do_ide
                0x0001e0c8                i2c_init
                0x0001e118                i2c_read
                0x0001e188                i2c_write
                0x0001e1f8                i2c_probe
                0x0001e25c                i2c_set_bus_num
                0x0001e278                i2c_get_bus_num
                0x0001e288                i2c_set_bus_speed
                0x0001e2a4                i2c_get_bus_speed
                0x0001e468                tsc2005_configuration
                0x0001e4ec                mv_ts_init
                0x0001e584                tsc2005_touched
                0x0001e750                spi_init
                0x0001e754                spi_setup_slave
                0x0001e7a4                spi_free_slave
                0x0001e7a8                spi_claim_bus
                0x0001e7b0                spi_release_bus
                0x0001e7b4                spi_cs_is_valid
                0x0001e7c8                spi_cs_activate
                0x0001e7e8                spi_cs_deactivate
                0x0001e7f0                spi_xfer
                0x0001e888                ehci_hcd_init
                0x0001e924                ehci_hcd_stop
                0x0001e92c                mvEthSwitchRegWrite
                0x0001e9f4                mvEthSwitchRegRead
                0x0001eb60                mvEthE6131SwitchBasicInit
                0x0001ec10                mvEthE6063SwitchBasicInit
                0x0001ec20                mvEthE6065_61SwitchBasicInit
                0x0001ec30                mvEthE6171SwitchBasicInit
                0x0001ee08                mvEthE6161SwitchBasicInit
                0x0001ef94                mvEthSwitchPhyRegWrite
                0x0001f04c                mvEthSwitchPhyRegRead
                0x0001f108                recoveryDetection
                0x0001f1f0                recoveryHandle
                0x0001f748                do_rcvr
                0x0001f75c                recoveryCheck
                0x0001f778                whoAmI_cmd
                0x0001f79c                training_cmd
                0x0001fad4                printTempMsg
                0x0001faf0                phy_write_cmd
                0x0001fb4c                phy_read_cmd
                0x0001fba4                displayMemoryMap_cmd
                0x0001fbb8                sg_cmd
                0x0001fc14                temperature_cmd
                0x0001fc38                ir_cmd
                0x0001fe3c                xor_waiton_eng
                0x0001fee8                mvDma_cmd
                0x000204c0                mvIntrfaceWidthPrint
                0x000204cc                mvIntrfaceParamPrint
                0x00020580                dram_init
                0x000205a4                dram_init_banksize
                0x00020650                mvBoardEgigaPhyInit
                0x000206dc                nand_burn_uboot_cmd
                0x0002096c                spi_burn_uboot_cmd
                0x00020b8c                burn_uboot_cmd
                0x00020c40                resetenv_cmd
                0x00020cf4                pcie_phy_write_cmd
                0x00020d50                pcie_phy_read_cmd
                0x00020da8                mv_print_map
                0x00020e1c                print_mvBanner
                0x00020eb4                maskAllInt
                0x00020ee8                enable_caches
                0x00020eec                misc_init_r_dec_win
                0x00020fec                board_late_init
                0x00021004                pcie_tune
                0x0002103c                board_eth_init
                0x00021064                board_mmc_init
                0x00021078                mvTclkGet
                0x000210a0                board_init
                0x00021198                mvSysClkGet
                0x000211c0                print_cpuinfo
                0x00021358                mvGetRtcSec
                0x00021384                reset_cpu
                0x00021388                envSetDefault
                0x000213b8                strToLower
                0x000213ec                envVerifyAndSet
                0x00021454                misc_init_r_env
                0x00021d34                misc_init_r
                0x00021dd8                ddr_phy_write_cmd
                0x00021e34                ddr_phy_read_cmd
                0x00021f04                amp_verify_cmd
                0x00022700                amp_boot_cmd
                0x00022870                amp_printenv_cmd
                0x00022ed0                amp_config_cmd
                0x00023058                amp_init
                0x00023110                amp_wait_to_boot
                0x00023158                mv_amp_group_setup
                0x000236b4                amp_boot
                0x000236e0                mvDramCsSizeGet
                0x00023704                mvSysXorInit2
                0x00023794                mvSysXorFinish2
                0x000237c0                mvDramScrubbing
                0x000238d4                mvSysNetaInit
                0x00023a80                mvNetaMaxCheck
                0x00023ad0                mvNetaPortCheck
                0x00023ae8                mvNetaTxpCheck
                0x00023b20                mvNetaCpuCheck
                0x00023b30                mvNetaPortDestroy
                0x00023b84                mvNetaAccMode
                0x00023b8c                mvNetaHalInit
                0x00023c20                mvNetaRxqCpuMaskSet
                0x00023cac                mvNetaTxqCpuMaskSet
                0x00023d38                mvEthGmacRgmiiSet
                0x00023d90                mvNetaPortPowerUp
                0x00023e1c                mvNetaPortPowerDown
                0x00023e20                mvNetaMaxRxSizeSet
                0x00023e80                mvNetaForceLinkModeSet
                0x00023f10                mvNetaSpeedDuplexSet
                0x00024010                mvNetaSpeedDuplexGet
                0x000240d0                mvNetaFlowCtrlSet
                0x00024198                mvNetaFlowCtrlGet
                0x00024244                mvNetaLinkIsUp
                0x00024288                mvNetaLinkStatus
                0x0002433c                mvNetaGmacLpiSet
                0x00024394                mvNetaRxUnicastPromiscSet
                0x00024430                mvNetaMacAddrSet
                0x00024554                mvNetaMacAddrGet
                0x000245f4                mvNetaMcastAddrSet
                0x00024d54                mvNetaSetUcastTable
                0x00024dc4                mvNetaSetSpecialMcastTable
                0x00024e34                mvNetaSetOtherMcastTable
                0x00024ee8                mvNetaTosToRxqSet
                0x00024fbc                mvNetaTosToRxqGet
                0x00025068                mvNetaVprioToRxqSet
                0x0002510c                mvNetaVprioToRxqGet
                0x00025188                mvNetaPhyAddrSet
                0x000251ec                mvNetaPhyAddrPollingDisable
                0x00025234                mvNetaPhyAddrGet
                0x0002527c                mvNetaRxReset
                0x0002531c                mvNetaTxpReset
                0x000253b4                mvNetaRxqAddrSet
                0x00025478                mvNetaRxqInit
                0x00025554                mvNetaTxqAddrSet
                0x000255d8                mvNetaTxpRateMaxSet
                0x00025634                mvNetaDefaultsSet
                0x0002589c                mvNetaTxqBandwidthSet
                0x00025908                mvNetaTxqInit
                0x000259ec                mvNetaRxqDelete
                0x00025a8c                mvNetaTxqDelete
                0x00025b40                mvNetaMhSet
                0x00025be4                mvNetaTagSet
                0x00025c88                mvNetaTxMhRegSet
                0x00025d00                mvNetaRxqBufSizeSet
                0x00025d5c                mvNetaRxqTimeCoalSet
                0x00025dd4                mvNetaRxqPktsCoalSet
                0x00025e1c                mvNetaTxDonePktsCoalSet
                0x00025e74                mvNetaRxqTimeCoalGet
                0x00025ee4                mvNetaRxqPktsCoalGet
                0x00025f30                mvNetaTxDonePktsCoalGet
                0x00025f78                mvNetaPortDown
                0x0002615c                mvNetaPortDisable
                0x000261c0                mvNetaPortInit
                0x000262fc                mvNetaRxqOffsetSet
                0x00026354                mvNetaBmPoolBufSizeSet
                0x000263a8                mvNetaRxqBmEnable
                0x00026408                mvNetaRxqBmDisable
                0x00026458                mvNetaTxpEjpBurstRateSet
                0x000264b4                mvNetaTxpEjpMaxPktSizeSet
                0x000264e0                mvNetaTxpEjpTxSpeedSet
                0x0002650c                mvNetaRateCalc
                0x000265e0                mvNetaTxpEjpSet
                0x00026650                mvNetaTxqFixPrioSet
                0x000266e4                mvNetaTxqWrrPrioSet
                0x000267ec                mvNetaTxpMaxTxSizeSet
                0x000268ac                mvNetaTxpRateSet
                0x000269a8                mvNetaTxpBurstSet
                0x00026a4c                mvNetaTxqRateSet
                0x00026b5c                mvNetaTxqBurstSet
                0x00026c2c                mvNetaTcpRxq
                0x00026ca8                mvNetaUdpRxq
                0x00026d24                mvNetaArpRxq
                0x00026da0                mvNetaBpduRxq
                0x00026e2c                mvNetaMibCounterRead
                0x00026e8c                mvNetaMibCountersClear
                0x00026ee0                mvNetaPortUp
                0x00026fd4                mvNetaPortEnable
                0x00027038                mvNetaWinRead
                0x000270f8                mvNetaWinEnable
                0x00027190                mvNetaWinWrite
                0x000273bc                mvNetaWinInit
                0x000274bc                mvNetaProtWinSet
                0x00027638                mvEthTxpWrrRegs
                0x00027810                mvEthPortRegs
                0x0002794c                mvEthRegs
                0x00027a74                mvNetaGmacRegs
                0x00027ba4                mvNetaRxqRegs
                0x00027ccc                mvNetaTxqRegs
                0x00027dc0                mvNetaTxpRegs
                0x00027e4c                mvNetaPortRegs
                0x00027fc4                mvNetaPortStatus
                0x00028144                mvNetaRxqShow
                0x000282f8                mvNetaTxqShow
                0x0002849c                mvEthPortCounters
                0x000287dc                mvEthPortRmonCounters
                0x000288b4                mvEthPortUcastShow
                0x000289b8                mvEthPortMcastShow
                0x00028b0c                mvNetaCpuDump
                0x00029300                mv_eth_initialize
                0x00029490                lowlevel_init
                0x000294ac                _dcache_index_max
                0x000294b0                _dcache_index_inc
                0x000294b4                _dcache_set_max
                0x000294b8                _dcache_set_index
                0x000294bc                cpu_dcache_flush_all
                0x000294f8                cpu_icache_flush_invalidate_all
                0x0002950c                lock_hw_mutex
                0x00029540                unlock_hw_mutex
                0x00029554                linuxMicroLoader
                0x000295d8                vxWorksMicroLoader
 .text          0x00029648    0x18e70 common/libcommon.o
                0x00029660                do_bdinfo
                0x00029798                do_go_exec
                0x000297b4                do_go
                0x00029924                do_bootd
                0x00029964                do_iminfo
                0x0002a198                arch_preboot_os
                0x0002a198                __arch_preboot_os
                0x0002a19c                do_bootm_subcommand
                0x0002a3e4                do_bootm
                0x0002a694                bootm_maybe_autostart
                0x0002a70c                do_coninfo
                0x0002a814                mk_date
                0x0002a9e8                do_date
                0x0002ab2c                do_echo
                0x0002abb0                eeprom_read
                0x0002ac28                eeprom_write
                0x0002aca0                do_eeprom
                0x0002adc4                eeprom_probe
                0x0002add0                eeprom_init
                0x0002add4                mv_swab32
                0x0002adec                mv_swab16
                0x0002aedc                do_bootelf_exec
                0x0002af24                valid_elf_image
                0x0002af94                do_bootvx
                0x0002b288                do_bootelf
                0x0002b3e0                do_exit
                0x0002b414                do_ext2load
                0x0002b718                do_ext2ls
                0x0002b844                do_fat_fsinfo
                0x0002b920                do_fat_ls
                0x0002ba2c                do_fat_fsload
                0x0002bbb0                do_help
                0x0002c580                i2c_init_board
                0x0002c580                __def_i2c_init_board
                0x0002c584                __def_i2c_get_bus_speed
                0x0002c590                __def_i2c_set_bus_speed
                0x0002c61c                binary_test
                0x0002c7e4                do_itest
                0x0002c914                do_jffs2_ls
                0x0002c978                do_jffs2_fsload
                0x0002cab8                do_jffs2_fsinfo
                0x0002cf4c                do_load_serial
                0x0002d0f0                send_pad
                0x0002d120                ktrans
                0x0002d144                chk1
                0x0002d16c                s1_sendpacket
                0x0002d194                send_ack
                0x0002d1f0                send_nack
                0x0002d24c                k_data_init
                0x0002d270                k_data_save
                0x0002d294                k_data_restore
                0x0002d2b8                k_data_char
                0x0002d30c                handle_send_packet
                0x0002d4cc                do_load_serial_bin
                0x0002d968                do_mem_base
                0x0002d9ac                do_mem_mtest
                0x0002db54                do_mem_loop
                0x0002dc4c                do_mem_md
                0x0002dd28                do_mem_crc
                0x0002ddd4                do_mem_cp
                0x0002deb4                do_mem_cmp
                0x0002e044                do_mem_mw
                0x0002e240                do_mem_nm
                0x0002e258                do_mem_mm
                0x0002e270                do_sleep
                0x0002e2f4                do_mmcops
                0x0002e798                do_mmcinfo
                0x0002f3b4                mtd_device_validate
                0x0002f3e8                device_find
                0x0002f968                mtd_id_parse
                0x0002fa7c                find_dev_and_part
                0x0002fc38                mtdparts_init
                0x00030210                do_mtdparts
                0x000307ac                do_chpart
                0x00030a1c                do_nandboot
                0x00031020                do_nand
                0x00031d00                do_nfs
                0x00031d0c                do_dhcp
                0x00031d28                do_tftpb
                0x00031d34                do_bootp
                0x00031d40                do_ping
                0x000320e4                do_env_save
                0x000321b8                do_env_print
                0x0003223c                get_env_id
                0x0003224c                _do_env_set
                0x000325dc                do_env_set
                0x000325f8                setenv
                0x0003289c                setenv_ulong
                0x000328bc                setenv_addr
                0x000328f4                envmatch
                0x0003295c                getenv_f
                0x00032a18                getenv
                0x00032a88                getenv_ulong
                0x00032abc                do_env_edit
                0x00032c84                pci_header_show_brief
                0x00032d08                pci_header_show
                0x000335fc                pciinfo
                0x0003371c                do_pci
                0x00033b0c                do_pxe
                0x00034694                do_pxe_boot
                0x000348f4                pxe_env_files
                0x000349ac                do_pxe_get
                0x00034c0c                scsi_get_dev
                0x00034c28                scsi_ident_cpy
                0x00034c88                scsi_trim_trail
                0x00034cbc                scsi_setup_test_unit_ready
                0x00034cf4                scsi_setup_read_capacity
                0x00034d40                scsi_setup_read_ext
                0x00034d98                scsi_read
                0x00034e84                do_scsiboot
                0x00035170                scsi_setup_read6
                0x000351b4                scsi_setup_inquiry
                0x000351fc                scsi_scan
                0x00035494                scsi_init
                0x00035508                do_scsi
                0x00035e6c                source
                0x00035f94                do_source
                0x00035fd8                do_spi
                0x000361fc                do_false
                0x00036204                do_true
                0x0003620c                do_test
                0x00037474                do_ubifs_load
                0x0003754c                do_ubifs_ls
                0x000375b4                do_ubifs_mount
                0x00037610                ubifs_is_mounted
                0x00037620                cmd_ubifs_umount
                0x00037678                do_ubifs_umount
                0x000376c4                do_usbboot
                0x00037a08                usb_get_class_desc
                0x00037acc                usb_display_class_sub
                0x00037c40                usb_display_string
                0x00037c80                usb_display_desc
                0x00037dac                usb_display_conf_desc
                0x00037e5c                usb_display_if_desc
                0x00037eec                usb_display_ep_desc
                0x00037fa8                usb_display_config
                0x0003802c                usb_show_tree_graph
                0x00038254                usb_show_tree
                0x00038288                do_usb
                0x000387f4                do_version
                0x00038830                do_imgextract
                0x00038aec                find_cmd_tbl
                0x00038b8c                find_cmd
                0x00038bb4                cmd_usage
                0x00038c14                _do_help
                0x00038d9c                var_complete
                0x00038e28                cmd_auto_complete
                0x000392a0                cmd_get_data_size
                0x00039398                serial_printf
                0x000393dc                fgetc
                0x00039408                ftstc
                0x00039434                fputc
                0x00039460                fputs
                0x0003948c                fprintf
                0x000394d4                getc
                0x000394fc                tstc
                0x00039524                putc
                0x00039550                puts
                0x0003957c                printf
                0x000395cc                vprintf
                0x00039610                ctrlc
                0x00039660                disable_ctrlc
                0x00039678                had_ctrlc
                0x00039688                clear_ctrlc
                0x0003969c                dbg
                0x000396a8                search_device
                0x000396d4                console_assign
                0x00039718                console_init_f
                0x00039728                stdio_print_current_devices
                0x0003972c                console_init_r
                0x0003980c                sbrk
                0x0003986c                mem_malloc_init
                0x00039890                malloc_trim
                0x0003995c                free
                0x00039b80                cfree
                0x00039b84                malloc
                0x0003a150                calloc
                0x0003a228                memalign
                0x0003a33c                pvalloc
                0x0003a354                valloc
                0x0003a360                realloc
                0x0003a76c                malloc_usable_size
                0x0003a7ac                mallopt
                0x0003a820                env_get_addr
                0x0003a844                env_get_char_memory
                0x0003a858                env_get_char
                0x0003a88c                set_default_env
                0x0003a930                env_import
                0x0003aa00                env_relocate
                0x0003aa30                env_complete
                0x0003ab18                env_get_char_spec
                0x0003ab24                saveenv
                0x0003ac80                env_relocate_spec
                0x0003ad3c                env_init
                0x0003ad5c                get_version
                0x0003ad64                jumptable_init
                0x0003af94                do_showvar
                0x0003b510                get_local_var
                0x0003b6d4                set_local_var
                0x0003b894                unset_local_var
                0x0003b93c                new_pipe
                0x0003b9b4                reserved_word
                0x0003bc80                mapset
                0x0003bca4                update_ifs_map
                0x0003bd14                parse_string_outer
                0x0003cc14                parse_file_outer
                0x0003cc5c                u_boot_hush_start
                0x0003ccec                image_check_hcrc
                0x0003cd40                image_check_dcrc
                0x0003cd80                image_multi_count
                0x0003cda4                image_multi_getimg
                0x0003ce2c                getenv_yesno
                0x0003ce54                getenv_bootm_low
                0x0003ce84                getenv_bootm_size
                0x0003cee4                getenv_bootm_mapsize
                0x0003cf14                memmove_wd
                0x0003cf24                genimg_print_size
                0x0003cf54                get_table_entry_name
                0x0003cf80                genimg_get_os_name
                0x0003cf98                genimg_get_arch_name
                0x0003cfb0                genimg_get_type_name
                0x0003cfc8                genimg_get_comp_name
                0x0003cfe0                image_print_contents
                0x0003d1ac                get_table_entry_id
                0x0003d1f8                genimg_get_os_id
                0x0003d210                genimg_get_arch_id
                0x0003d228                genimg_get_type_id
                0x0003d240                genimg_get_comp_id
                0x0003d258                genimg_get_format
                0x0003d270                genimg_get_image
                0x0003d274                genimg_has_config
                0x0003d27c                boot_get_ramdisk
                0x0003d4b0                boot_ramdisk_high
                0x0003d798                __show_boot_progress
                0x0003d798                show_boot_progress
                0x0003d79c                abortboot
                0x0003d860                run_command2
                0x0003d878                main_loop
                0x0003d8f4                readline_into_buffer
                0x0003e228                readline
                0x0003e244                parse_line
                0x0003e2c8                process_macros
                0x0003e4d8                run_command
                0x0003e6ac                do_run
                0x0003e724                get_ram_size
                0x0003e9dc                menu_default_set
                0x0003ea14                menu_get_choice
                0x0003eaa0                menu_item_add
                0x0003eb38                menu_create
                0x0003ebbc                menu_destroy
                0x0003ec78                srec_decode
                0x0003eedc                stdio_get_list
                0x0003eee8                stdio_get_by_name
                0x0003ef40                stdio_clone
                0x0003ef8c                stdio_register
                0x0003efcc                stdio_init
                0x0003f0c4                wait_ms
                0x0003f0ec                usb_stop
                0x0003f11c                usb_disable_asynch
                0x0003f13c                usb_submit_int_msg
                0x0003f140                usb_control_msg
                0x0003f1f4                usb_bulk_msg
                0x0003f25c                usb_maxpacket
                0x0003f278                usb_set_maxpacket
                0x0003f2d4                usb_parse_config
                0x0003f448                usb_clear_halt
                0x0003f4f4                usb_get_descriptor
                0x0003f554                usb_get_configuration_no
                0x0003f5ec                usb_set_address
                0x0003f630                usb_set_interface
                0x0003f6f0                usb_set_configuration
                0x0003f758                usb_set_protocol
                0x0003f7b0                usb_set_idle
                0x0003f810                usb_get_report
                0x0003f878                usb_get_class_descriptor
                0x0003f8e0                usb_get_string
                0x0003fa5c                usb_string
                0x0003fb5c                usb_get_dev_index
                0x0003fb88                usb_alloc_new_device
                0x0003fc10                usb_get_hub_descriptor
                0x0003fc6c                usb_clear_hub_feature
                0x0003fcc0                usb_clear_port_feature
                0x0003fd18                usb_set_port_feature
                0x0003fdb8                usb_get_hub_status
                0x0003fe0c                usb_get_port_status
                0x0003ff04                usb_hub_reset
                0x0003ff18                usb_hub_allocate
                0x0003ff60                usb_hub_probe
                0x0003ffb8                usb_new_device
                0x00040264                usb_hub_port_connect_change
                0x00040354                usb_hub_configure
                0x00040558                usb_scan_devices
                0x000405e0                usb_init
                0x00040940                usb_stor_read
                0x00040b20                usb_stor_write
                0x00040d00                usb_stor_get_dev
                0x00040d24                usb_show_progress
                0x00040d28                usb_stor_info
                0x00040d98                usb_stor_BBB_comdat
                0x00040e74                usb_stor_CB_comdat
                0x000410c0                usb_stor_CBI_get_status
                0x00041190                usb_stor_CB_transport
                0x00041388                usb_stor_BBB_clear_endpt_stall
                0x000413d8                usb_stor_BBB_transport
                0x000415a0                usb_storage_probe
                0x000417c0                usb_stor_get_info
                0x000419dc                usb_stor_scan
                0x00041bf0                CYGACC_COMM_IF_GETC_TIMEOUT
                0x00041ee0                CYGACC_COMM_IF_PUTC
                0x00041ee8                parse_num
                0x00042004                xyzModem_stream_open
                0x00042154                xyzModem_stream_read
                0x000423a8                xyzModem_stream_close
                0x000423fc                xyzModem_stream_terminate
                0x00042498                xyzModem_error
 .text          0x000424b8     0x1604 disk/libdisk.o
                0x0004257c                get_dev
                0x000425e0                dev_print
                0x0004285c                init_part
                0x000428a8                get_partition_info
                0x000428f0                print_part
                0x00042e24                test_part_dos
                0x00042e98                print_part_dos
                0x00042ec4                get_partition_info_dos
                0x00042ee4                get_partition_info_iso_verb
                0x000432f0                get_partition_info_iso
                0x000432f8                print_part_iso
                0x0004339c                test_part_iso
                0x000437d8                print_part_efi
                0x0004390c                get_partition_info_efi
                0x00043a14                test_part_efi
 .text          0x00043abc     0x2cd4 drivers/block/libblock.o
                0x00045120                scsi_write_dword
                0x00045134                scsi_read_dword
                0x00045148                scsi_exec
                0x00045718                scsi_write_phy_vsr_addr
                0x00045738                scsi_write_phy_vsr_data
                0x00045758                scsi_read_vsr_data
                0x00046658                scsi_low_level_init
                0x0004677c                scsi_bus_reset
                0x0004678c                scsi_print_error
 .text          0x00046790     0x1bb8 drivers/mmc/libmmc.o
                0x00046798                __board_mmc_getcd
                0x00046798                board_mmc_getcd
                0x000467a0                mmc_send_cmd
                0x0004685c                mmc_send_status
                0x00046920                mmc_set_blocklen
                0x00046958                find_mmc_device
                0x00046d5c                mmc_read_blocks
                0x00046f2c                mmc_go_idle
                0x00046f80                sd_send_op_cond
                0x000470cc                mmc_send_op_cond
                0x00047220                mmc_send_ext_csd
                0x00047274                mmc_switch
                0x000472d0                mmc_change_freq
                0x00047384                mmc_switch_part
                0x000473c4                sd_switch
                0x00047434                sd_change_freq
                0x00047614                mmc_set_ios
                0x00047628                mmc_set_clock
                0x00047658                mmc_set_bus_width
                0x00047670                mmc_startup
                0x00047cf4                mmc_send_if_cond
                0x00047d70                mmc_register
                0x00047df4                mmc_get_dev
                0x00047e0c                mmc_init
                0x00047ec4                cpu_mmc_init
                0x00047ecc                print_mmc_devices
                0x00047f30                get_mmc_num
                0x00047f40                mmc_initialize
                0x000482b8                mrvl_mmc_initialize
 .text          0x00048348      0xf38 drivers/mtd/libmtd.o
                0x00048348                add_mtd_device
                0x000483b8                del_mtd_device
                0x00048408                get_mtd_device
                0x00048484                get_mtd_device_nm
                0x000484f4                put_mtd_device
                0x00048b2c                mtd_erase_callback
                0x00048ba0                del_mtd_partitions
                0x00048c2c                add_mtd_partitions
 .text          0x00049280     0x5df4 drivers/mtd/nand/libnand.o
                0x00049280                nand_init
                0x0004a370                nand_update_bbt
                0x0004a634                nand_scan_bbt
                0x0004aae4                nand_default_bbt
                0x0004ab98                nand_isbad_bbt
                0x0004ac7c                nand_erase_opts
                0x0004af94                get_len_incl_bad
                0x0004b070                nand_write_skip_bad
                0x0004b284                nand_read_skip_bad
                0x0004b460                nand_calculate_ecc
                0x0004b554                nand_correct_data
                0x0004b694                nand_read_byte
                0x0004b6c8                nand_write_buf
                0x0004b6f8                nand_read_buf
                0x0004b764                nand_write_buf16
                0x0004b798                nand_read_buf16
                0x0004d500                nand_wait_ready
                0x0004e0a0                nand_erase_nand
                0x0004e43c                nand_scan_ident
                0x0004ea78                nand_scan_tail
                0x0004f014                nand_scan
                0x0004f040                nand_release
 .text          0x0004f074      0x9ac drivers/mtd/spi/libspi_flash.o
                0x0004f0ec                spi_flash_cmd_read
                0x0004f10c                spi_flash_cmd
                0x0004f13c                spi_flash_cmd_write
                0x0004f15c                spi_flash_read_common
                0x0004f1ac                spi_flash_cmd_read_fast
                0x0004f218                spi_flash_cmd_poll_bit
                0x0004f2e0                spi_flash_cmd_wait_ready
                0x0004f2ec                spi_flash_cmd_write_multi
                0x0004f498                spi_flash_cmd_erase
                0x0004f620                spi_flash_probe
                0x0004f73c                spi_flash_free
                0x0004f76c                spi_flash_probe_macronix
                0x0004f898                spi_flash_probe_stmicro
 .text          0x0004fa20     0x795c drivers/mtd/ubi/libubi.o
                0x0004fa20                ubi_get_device
                0x0004fa40                ubi_put_device
                0x0004fa50                ubi_get_by_major
                0x0004fa9c                ubi_major2num
                0x0004fae0                ubi_attach_mtd_dev
                0x00050258                ubi_detach_mtd_dev
                0x00050350                ubi_init
                0x000504b4                ubi_exit
                0x000504fc                ubi_mtd_param_parse
                0x00050c08                ubi_change_vtbl_record
                0x00050cc0                ubi_read_volume_table
                0x00051484                ubi_create_volume
                0x000518b8                ubi_remove_volume
                0x000519ec                ubi_resize_volume
                0x00051c6c                ubi_add_volume
                0x00051ccc                ubi_free_volume
                0x00051ea0                ubi_start_update
                0x00052024                ubi_start_leb_change
                0x000520ac                ubi_more_update_data
                0x00052310                ubi_more_leb_change_data
                0x00052434                ubi_get_device_info
                0x00052490                ubi_get_volume_info
                0x00052504                ubi_close_volume
                0x00052568                ubi_open_volume
                0x00052704                ubi_open_volume_nm
                0x000527e0                ubi_leb_read
                0x00052914                ubi_leb_write
                0x00052a10                ubi_leb_change
                0x00052af4                ubi_leb_erase
                0x00052b7c                ubi_leb_unmap
                0x00052be8                ubi_leb_map
                0x00052c90                ubi_is_mapped
                0x00052f24                ubi_eba_unmap_leb
                0x00052fa8                ubi_eba_read_leb
                0x000531e4                ubi_eba_write_leb
                0x00053710                ubi_eba_write_leb_st
                0x000539b4                ubi_eba_atomic_leb_change
                0x00053c7c                ubi_eba_copy_leb
                0x00053f54                ubi_eba_init_scan
                0x00054198                ubi_eba_close
                0x000542c0                ubi_io_read
                0x000543c4                ubi_io_write
                0x00054468                ubi_io_sync_erase
                0x00054640                ubi_io_is_bad
                0x0005469c                ubi_io_mark_bad
                0x0005471c                ubi_io_read_ec_hdr
                0x00054960                ubi_io_write_ec_hdr
                0x000549ec                ubi_io_read_vid_hdr
                0x00054cd8                ubi_io_write_vid_hdr
                0x00055860                ubi_wl_get_peb
                0x000559e0                ubi_wl_put_peb
                0x00055ad0                ubi_wl_scrub_peb
                0x00055bac                ubi_wl_flush
                0x00055bfc                ubi_thread
                0x00055ca8                ubi_wl_init_scan
                0x00055f78                ubi_wl_close
                0x000561cc                ubi_scan_add_used
                0x000567e4                ubi_scan_find_sv
                0x00056814                ubi_scan_find_seb
                0x00056844                ubi_scan_rm_volume
                0x000568b0                ubi_scan_erase_peb
                0x00056950                ubi_scan_get_free_peb
                0x00056a24                ubi_scan_destroy_si
                0x00056bd0                ubi_scan
                0x00057184                crc32_le
                0x0005726c                ubi_calc_data_len
                0x0005729c                ubi_check_volume
                0x00057350                ubi_calculate_reserved
 .text          0x0005737c     0x444c drivers/net/libnet.o
                0x00058268                e1000_raise_ee_clk
                0x00058288                e1000_lower_ee_clk
                0x000583bc                e1000_standby_eeprom
                0x0005846c                e1000_acquire_eeprom
                0x00058550                e1000_release_eeprom
                0x00058a9c                e1000_set_mac_type
                0x00058da4                e1000_reset_hw
                0x00058ec0                e1000_check_mng_mode
                0x00058efc                fill_rx
                0x0005aa60                e1000_get_bus_type
                0x0005aabc                e1000_initialize
                0x0005af10                e1000_find_card
                0x0005b5f0                eepro100_initialize
 .text          0x0005b7c8      0x27c drivers/net/sk98lin/libsk98lin.o(uboot_drv.o)
                0x0005b9ac                skge_initialize
 .text          0x0005ba44      0x180 drivers/net/sk98lin/libsk98lin.o(uboot_skb.o)
                0x0005ba44                alloc_skb
                0x0005bb30                dev_kfree_skb_any
                0x0005bba4                skb_reserve
                0x0005bbb4                skb_put
 .text          0x0005bbc4     0x1a7c drivers/net/sk98lin/libsk98lin.o(sky2.o)
                0x0005bdec                SkY2RestartStatusUnit
                0x0005be2c                SkY2RlmtSend
                0x0005be34                SkY2AllocateResources
                0x0005c0f4                SkY2FreeResources
                0x0005c14c                SkY2FreeRxBuffers
                0x0005c22c                SkY2FreeTxBuffers
                0x0005c310                SkY2Xmit
                0x0005c3f0                SkY2PortStop
                0x0005c478                SkY2PortStart
                0x0005c6f8                FillReceiveTableYukon2
                0x0005cad4                SkY2Isr
                0x0005d63c                SkY2AllocateRxBuffers
 .text          0x0005d640     0x365c drivers/net/sk98lin/libsk98lin.o(skge.o)
                0x0005d9c8                skge_probe
                0x0005f230                SkGeCheckTimer
                0x0005f250                SkGeXmit
                0x0005f29c                xchg
                0x0005f2ac                SkDrvAllocRlmtMbuf
                0x0005f2fc                SkDrvFreeRlmtMbuf
                0x0005f324                SkOsGetTime
                0x0005f358                ReceiveIrq
                0x0005f788                SkGeIsrOnePort
                0x0005f8a8                SkGeIsr
                0x0005fa3c                SkPciReadCfgDWord
                0x0005fa58                SkPciReadCfgWord
                0x0005fa74                SkPciReadCfgByte
                0x0005fa90                SkPciWriteCfgDWord
                0x0005faac                SkPciWriteCfgWord
                0x0005fac8                SkPciWriteCfgByte
                0x0005fae4                SkLocalEventQueue
                0x0005fb30                SkGeClose
                0x0005fe84                SkGeOpen
                0x00060140                SkLocalEventQueue64
                0x00060194                SkDrvEvent
                0x00060b28                SkErrorLog
                0x00060c18                SkDrvEnterDiagMode
 .text          0x00060c9c      0x224 drivers/net/sk98lin/libsk98lin.o(sky2le.o)
                0x00060c9c                SkGeY2InitSingleLETable
                0x00060d24                SkGeY2InitPrefetchUnit
                0x00060d70                SkGeY2InitStatBmu
                0x00060e28                SkGeY2SetPutIndex
 .text          0x00060ec0      0x3e0 drivers/net/sk98lin/libsk98lin.o(skdim.o)
                0x00060f2c                SkDimModerate
                0x000611a8                SkDimStartModerationTimer
                0x00061228                SkDimEnableModerationIfNeeded
                0x0006124c                SkDimDisableModeration
 .text          0x000612a0     0x11a4 drivers/net/sk98lin/libsk98lin.o(skaddr.o)
                0x000612a0                SkAddrInit
                0x00061718                SkGmacMcHash
                0x00061788                SkAddrGmacMcAdd
                0x0006186c                SkAddrMcAdd
                0x000618a8                SkAddrGmacPromiscuousChange
                0x00061a6c                SkAddrPromiscuousChange
                0x00061a9c                SkAddrGmacMcUpdate
                0x00061c60                SkAddrMcUpdate
                0x00061c84                SkAddrOverride
                0x00062144                SkAddrGmacMcClear
                0x0006221c                SkAddrMcClear
                0x00062254                SkAddrSwap
 .text          0x00062444     0x21ec drivers/net/sk98lin/libsk98lin.o(skgeinit.o)
                0x00062880                SkGePortVlan
                0x000628b8                SkGeRxRss
                0x000628ec                SkGeRxCsum
                0x00062920                SkGePollRxD
                0x00062948                SkGePollTxD
                0x0006299c                SkGeYellowLED
                0x000629c0                SkGeXmitLED
                0x00062a48                SkGeInitAssignRamToQueues
                0x00062cec                DoInitRamQueue
                0x00062e5c                SkGeInitRamIface
                0x00062f00                SkGeStopPort
                0x0006337c                SkGeInit
                0x00063f30                SkGeDeInit
                0x00063ff0                SkGeInitPort
                0x00064314                SkYuk2RestartRxBmu
 .text          0x00064630     0x15d4 drivers/net/sk98lin/libsk98lin.o(skgesirq.o)
                0x00064de4                SkHWLinkDown
                0x000650e8                SkHWLinkUp
                0x00065194                SkGeSirqIsr
                0x000651a8                SkGeYuSirqIsr
                0x000655f8                SkYuk2SirqIsr
                0x00065720                SkGeSirqEvent
 .text          0x00065c04      0xe80 drivers/net/sk98lin/libsk98lin.o(sktwsi.o)
                0x00065f30                SkI2cWait
                0x00065fcc                SkI2cWaitIrq
                0x0006607c                SkI2cWrite
                0x000660cc                SkI2cReadSensor
                0x000660ec                SkI2cInit
                0x000667d4                SkI2cIsr
                0x000667fc                SkI2cEvent
 .text          0x00066a84      0x168 drivers/net/sk98lin/libsk98lin.o(sklm80.o)
                0x00066a84                SkLm80ReadSensor
 .text          0x00066bec      0x20c drivers/net/sk98lin/libsk98lin.o(skqueue.o)
                0x00066bec                SkEventInit
                0x00066c10                SkEventQueue
                0x00066ca0                SkEventDispatcher
 .text          0x00066df8     0x313c drivers/net/sk98lin/libsk98lin.o(skrlmt.o)
                0x00066df8                SkRlmtBuildCheckChain
                0x00066f28                SkRlmtBuildPacket
                0x0006707c                SkRlmtBuildSpanningTreePacket
                0x000671e4                SkRlmtSend
                0x00067368                SkRlmtSelectBcRx
                0x00067490                SkRlmtSelectNotSuspect
                0x00067548                SkRlmtSelectUp
                0x0006760c                SkRlmtSelectGoingUp
                0x000676f4                SkRlmtSelectDown
                0x000677b8                SkRlmtCheckSwitch
                0x00067d7c                SkRlmtPortReceives
                0x00067e50                SkRlmtCheckPort
                0x00068044                SkRlmtCheckSeg
                0x00068174                SkRlmtPacketReceive
                0x000687b8                SkRlmtPortStart
                0x00068814                SkRlmtEvtPortStartTim
                0x00068894                SkRlmtEvtLinkUp
                0x00068b84                SkRlmtEvtPortUpTim
                0x00068c24                SkRlmtEvtPortDownX
                0x00068d50                SkRlmtEvtPortAddr
                0x00068e08                SkRlmtEvtStop
                0x00068fa8                SkRlmtEvtTim
                0x000691b4                SkRlmtEvtSegTim
                0x000691c4                SkRlmtEvtPacketRx
                0x0006923c                SkRlmtEvtStatsClear
                0x000692bc                SkRlmtEvtStatsUpdate
                0x000692c0                SkRlmtEvtPrefportChange
                0x0006935c                SkRlmtEvtSetNets
                0x00069578                SkRlmtEvtModeChange
                0x00069800                SkRlmtEvent
                0x000699e0                SkRlmtEvtStart
                0x00069b30                SkRlmtEvtLinkDown
                0x00069bd4                SkRlmtInit
 .text          0x00069f34      0x298 drivers/net/sk98lin/libsk98lin.o(sktimer.o)
                0x0006a014                SkTimerStop
                0x0006a098                SkTimerStart
                0x0006a184                SkTimerDone
                0x0006a18c                SkTimerInit
 .text          0x0006a1cc     0x1b10 drivers/net/sk98lin/libsk98lin.o(skxmac2.o)
                0x0006a2b8                SkGmPhyRead
                0x0006a390                SkGmPhyWrite
                0x0006afb0                SkMacPromiscMode
                0x0006afe4                SkMacHashing
                0x0006b018                SkMacFlushTxFifo
                0x0006b01c                SkMacFlushRxFifo
                0x0006b020                SkMacHardRst
                0x0006b05c                SkMacClearRst
                0x0006b070                SkMacInitPhy
                0x0006b084                SkMacSetRxTxEn
                0x0006b0e4                SkMacRxTxEnable
                0x0006b1d0                SkMacAutoNegDone
                0x0006b45c                SkMacRxTxDisable
                0x0006b488                SkMacSoftRst
                0x0006b55c                SkMacIrqDisable
                0x0006b594                SkMacAutoNegLipaPhy
                0x0006b5bc                SkMacIrq
                0x0006b66c                SkGmUpdateStats
                0x0006b674                SkGmMacStatistic
                0x0006b6d8                SkGmResetCounter
                0x0006b720                SkGmInitMac
                0x0006b9b8                SkGmOverflowStatus
                0x0006ba5c                SkGmCableDiagStatus
 .text          0x0006bcdc      0x1cc drivers/net/sk98lin/libsk98lin.o(skgehwt.o)
                0x0006bcdc                SkHwtInit
                0x0006bd1c                SkHwtStart
                0x0006bd7c                SkHwtStop
                0x0006bda0                SkHwtRead
                0x0006be6c                SkHwtIsr
 .text          0x0006bea8     0x16e4 drivers/pci/libpci.o
                0x0006bea8                pci_hose_read_config_byte
                0x0006bebc                pci_hose_read_config_word
                0x0006bed0                pci_hose_read_config_dword
                0x0006bee4                pci_hose_write_config_byte
                0x0006bef8                pci_hose_write_config_word
                0x0006bf0c                pci_hose_write_config_dword
                0x0006bf20                pci_hose_read_config_byte_via_dword
                0x0006bf68                pci_hose_read_config_word_via_dword
                0x0006bfb0                pci_hose_write_config_byte_via_dword
                0x0006c028                pci_hose_write_config_word_via_dword
                0x0006c0a0                pci_register_hose
                0x0006c0cc                pci_bus_to_hose
                0x0006c11c                pci_write_config_dword
                0x0006c15c                pci_write_config_word
                0x0006c19c                pci_write_config_byte
                0x0006c1dc                pci_read_config_dword
                0x0006c220                pci_read_config_word
                0x0006c264                pci_read_config_byte
                0x0006c2a8                find_hose_by_cfg_addr
                0x0006c2d4                pci_last_busno
                0x0006c30c                pci_find_devices
                0x0006c408                pci_find_device
                0x0006c420                __pci_hose_phys_to_bus
                0x0006c4a4                pci_hose_phys_to_bus
                0x0006c51c                __pci_hose_bus_to_phys
                0x0006c5a4                pci_hose_bus_to_phys
                0x0006c61c                pci_map_bar
                0x0006c654                pci_hose_config_device
                0x0006c860                pci_find_config
                0x0006c910                pci_cfgfunc_config_device
                0x0006c934                pci_cfgfunc_do_nothing
                0x0006c938                pci_class_str
                0x0006cab0                __pci_skip_dev
                0x0006cac4                pci_hose_scan_bus
                0x0006cc4c                pci_hose_scan
                0x0006cc78                pci_init
                0x0006cc8c                pciauto_region_init
                0x0006cca0                pciauto_region_align
                0x0006ccbc                pciauto_region_allocate
                0x0006cd14                pciauto_setup_device
                0x0006cee8                pciauto_prescan_setup_bridge
                0x0006d05c                pciauto_postscan_setup_bridge
                0x0006d13c                pciauto_config_init
                0x0006d248                pciauto_config_device
                0x0006d538                pci_setup_indirect
 .text          0x0006d58c        0x0 drivers/pcmcia/libpcmcia.o
 .text          0x0006d58c      0x280 drivers/rtc/librtc.o
                0x0006d58c                GregorianDay
                0x0006d674                to_tm
                0x0006d778                mktime
 .text          0x0006d80c      0xbb4 drivers/usb/host/libusb_host.o
                0x0006dd50                ehci_powerup_fixup
                0x0006dd50                __ehci_powerup_fixup
                0x0006dd58                ehci_submit_root
                0x0006e1d0                usb_lowlevel_stop
                0x0006e1d4                usb_lowlevel_init
                0x0006e328                submit_bulk_msg
                0x0006e350                submit_control_msg
                0x0006e3b4                submit_int_msg
 .text          0x0006e3c0     0x10ac fs/ext2/libext2fs.o
                0x0006e4cc                ext2fs_free_node
                0x0006e4f0                ext2fs_read_file
                0x0006ec1c                ext2fs_find_file1
                0x0006eec4                ext2fs_find_file
                0x0006ef38                ext2fs_ls
                0x0006efb0                ext2fs_open
                0x0006f048                ext2fs_close
                0x0006f100                ext2fs_read
                0x0006f134                ext2fs_mount
                0x0006f1f8                ext2fs_set_blk_dev
                0x0006f25c                ext2fs_devread
 .text          0x0006f46c     0x17c0 fs/fat/libfat.o
                0x0006fbb4                fat_register_device
                0x0006fce4                do_fat_read
                0x00070718                file_fat_detectfs
                0x00070874                file_fat_ls
                0x00070884                file_fat_read
                0x000708bc                file_getfsname
                0x000708d4                file_cd
                0x00070acc                file_detectfs
                0x00070b0c                file_ls
                0x00070b94                file_read
 .text          0x00070c2c     0x1e48 fs/jffs2/libjffs2.o
                0x00070c2c                rtime_decompress
                0x00070cf8                rubin_do_decompress
                0x00070dd8                dynrubin_decompress
                0x00070e14                zlib_decompress
                0x00071124                jffs2_free_cache
                0x00071188                mkmodestr
                0x000717b8                jffs2_1pass_rescan_needed
                0x00071cd8                jffs2_1pass_ls
                0x00071d28                jffs2_1pass_load
                0x0007205c                jffs2_1pass_info
                0x00072214                cramfs_memset
                0x00072274                pull_bits
                0x000722d0                pull_bit
                0x000724c0                decompress_block
 .text          0x00072a74     0xaeec fs/ubifs/libubifs.o
                0x00072df4                ubifs_decompress
                0x00072fc8                ubifs_compressors_init
                0x00072ffc                ubifs_ls
                0x0007348c                ubifs_load
                0x0007379c                ubifs_ro_mode
                0x000737d8                ubifs_check_node
                0x00073968                ubifs_pad
                0x00073a34                ubifs_prepare_node
                0x00073b5c                ubifs_read_node
                0x00073d50                sget
                0x00073de8                iget_locked
                0x00073e38                ubifs_iput
                0x00073e68                iput
                0x00073ee0                ubifs_iget
                0x000741a0                ubifs_umount
                0x00074eac                ubifs_init
                0x00074eb0                ubifs_mount
                0x00075000                ubifs_read_sb_node
                0x0007506c                ubifs_read_superblock
                0x000755b0                ubifs_read_master
                0x00075f00                ubifs_calc_lpt_geom
                0x00076290                ubifs_unpack_bits
                0x00076498                ubifs_add_lpt_dirt
                0x000764d8                ubifs_add_nnode_dirt
                0x00076634                ubifs_unpack_nnode
                0x000766f0                ubifs_read_nnode
                0x00076968                ubifs_get_nnode
                0x0007699c                ubifs_get_pnode
                0x00076d64                ubifs_lpt_lookup
                0x00076e00                ubifs_lpt_lookup_dirty
                0x00076fec                ubifs_lpt_init
                0x000771c0                ubifs_lpt_free
                0x000773a0                ubifs_scan_a_node
                0x000774c0                ubifs_start_scan
                0x00077594                ubifs_end_scan
                0x000775b0                ubifs_add_snod
                0x00077644                ubifs_scanned_corruption
                0x00077670                ubifs_scan_destroy
                0x000776b4                ubifs_scan
                0x00077b54                ubifs_add_to_cat
                0x00077cf4                ubifs_replace_cat
                0x00077d58                ubifs_categorize_lprops
                0x00077dec                ubifs_ensure_cat
                0x00077e3c                ubifs_change_lp
                0x00078144                ubifs_get_lp_stats
                0x00078158                ubifs_change_one_lp
                0x000781bc                ubifs_update_one_lp
                0x00078224                ubifs_read_one_lp
                0x00078258                ubifs_fast_find_free
                0x00078270                ubifs_fast_find_empty
                0x0007828c                ubifs_fast_find_freeable
                0x000782a0                ubifs_fast_find_frdi_idx
                0x00079728                insert_old_idx_znode
                0x00079998                destroy_old_idx
                0x000799fc                ubifs_lookup_level0
                0x00079b44                ubifs_tnc_locate
                0x00079c40                ubifs_tnc_get_bu_keys
                0x00079e7c                ubifs_tnc_bulk_read
                0x0007a09c                ubifs_tnc_lookup_nm
                0x0007a16c                ubifs_tnc_add
                0x0007a224                ubifs_tnc_replace
                0x0007a474                ubifs_tnc_remove
                0x0007a4b4                ubifs_tnc_remove_nm
                0x0007a578                ubifs_tnc_add_nm
                0x0007a708                ubifs_tnc_remove_range
                0x0007a8fc                ubifs_tnc_next_ent
                0x0007aa08                ubifs_tnc_remove_ino
                0x0007ab70                ubifs_tnc_levelorder_next
                0x0007ac64                ubifs_search_zbranch
                0x0007ace8                ubifs_tnc_postorder_first
                0x0007ad28                ubifs_tnc_postorder_next
                0x0007ad64                ubifs_load_znode
                0x0007b018                ubifs_tnc_read_node
                0x0007b0a0                crc16
                0x0007b124                ubifs_calc_min_idx_lebs
                0x0007b19c                ubifs_reported_space
                0x0007b1e4                ubifs_search_bud
                0x0007b218                ubifs_add_bud
                0x0007b2c8                ubifs_clear_orphans
                0x0007b354                ubifs_mount_orphans
                0x0007bbe4                ubifs_recover_master_node
                0x0007bda8                ubifs_write_rcvrd_mst_node
                0x0007be60                ubifs_recover_leb
                0x0007c2e4                ubifs_recover_log_leb
                0x0007c4d4                ubifs_recover_inl_heads
                0x0007c518                ubifs_clean_lebs
                0x0007c6ec                ubifs_recover_size_accum
                0x0007c804                ubifs_recover_size
                0x0007ca98                ubifs_validate_entry
                0x0007cb80                ubifs_replay_journal
 .text          0x0007d960     0x37a0 lib/libgeneric.o
                0x0007d960                crc7
                0x0007d994                cyg_crc16
                0x0007d9dc                crc32_no_comp
                0x0007dac0                crc32
                0x0007dad8                crc32_wd
                0x0007dadc                display_options
                0x0007db00                print_size
                0x0007dc38                print_buffer
                0x0007dda4                zfree
                0x0007ddac                zalloc
                0x0007ddbc                zunzip
                0x0007dec8                gunzip
                0x0007df8c                hcreate_r
                0x0007e038                hdestroy_r
                0x0007e0b0                hstrstr_r
                0x0007e160                hmatch_r
                0x0007e204                hsearch_r
                0x0007e4f4                hdelete_r
                0x0007e580                hexport_r
                0x0007e82c                himport_r
                0x0007ec3c                lmb_dump_all
                0x0007ec40                lmb_init
                0x0007ec68                lmb_add
                0x0007ec6c                lmb_free
                0x0007ed90                lmb_reserve
                0x0007ed98                lmb_overlaps_region
                0x0007edf8                __lmb_alloc_base
                0x0007ef2c                lmb_alloc_base
                0x0007ef64                lmb_alloc
                0x0007ef6c                lmb_is_reserved
                0x0007efd0                board_lmb_reserve
                0x0007efd0                __board_lmb_reserve
                0x0007efd4                __arch_lmb_reserve
                0x0007efd8                ldiv
                0x0007f02c                string_to_ip
                0x0007f08c                qsort
                0x0007f170                strcmp_compar
                0x0007f17c                strmhz
                0x0007f2d0                rb_insert_color
                0x0007f400                rb_erase
                0x0007f75c                rb_first
                0x0007f780                rb_last
                0x0007f7a4                rb_next
                0x0007f804                rb_prev
                0x0007f864                rb_replace_node
                0x0007f8c4                __div64_32
                0x0007f9b0                strcpy
                0x0007f9c8                strncpy
                0x0007f9ec                strcat
                0x0007fa18                strncat
                0x0007fa6c                strcmp
                0x0007fa94                strncmp
                0x0007fadc                strchr
                0x0007fb10                strlen
                0x0007fb30                strrchr
                0x0007fb70                strnlen
                0x0007fb9c                strdup
                0x0007fbd4                strspn
                0x0007fc18                strpbrk
                0x0007fc58                strtok
                0x0007fcd4                strsep
                0x0007fd0c                strswab
                0x0007fd58                memset
                0x0007fdcc                bcopy
                0x0007fdf4                memcpy
                0x0007fe64                memmove
                0x0007fed4                memcmp
                0x0007ff0c                memscan
                0x0007ff38                strstr
                0x0007ff9c                memchr
                0x0007ffcc                udelay
                0x00080000                mdelay
                0x00080028                uuid_str_valid
                0x000800c4                uuid_str_to_bin
                0x000806fc                simple_strtoul
                0x000807ac                strict_strtoul
                0x00080828                simple_strtol
                0x00080854                ustrtoul
                0x000808c8                simple_strtoull
                0x000809cc                vsprintf
                0x00081028                sprintf
                0x0008104c                panic
                0x00081090                __assert_fail
                0x000810a4                simple_itoa
 .text          0x00081100      0x7ac lib/lzo/liblzo.o
                0x00081148                lzo1x_decompress_safe
                0x00081788                lzop_decompress
 .text          0x000818ac     0x26ec lib/zlib/libz.o
                0x000818ac                zcfree
                0x000818b4                zcalloc
                0x000818bc                inflate_fast
                0x00081e88                inflate_table
                0x00082450                inflateReset
                0x000824d4                inflateInit2_
                0x000825dc                inflateInit_
                0x000825f0                inflateEnd
                0x00082658                adler32
                0x00082940                inflate
 .text          0x00083f98     0x442c net/libnet.o
                0x0008470c                BootpRequest
                0x00084900                DhcpRequest
                0x00084904                cpu_eth_init
                0x000849e0                eth_parse_enetaddr
                0x00084a38                eth_getenv_enetaddr
                0x00084a94                eth_setenv_enetaddr
                0x00084acc                eth_getenv_enetaddr_by_index
                0x00084b18                eth_get_dev
                0x00084b28                eth_get_dev_by_name
                0x00084bac                eth_get_dev_by_index
                0x00084bf8                eth_get_dev_index
                0x00084c48                eth_write_hwaddr
                0x00084d98                eth_register
                0x00084df8                eth_initialize
                0x00084f90                eth_halt
                0x00084fc4                eth_send
                0x00084ffc                eth_rx
                0x00085028                eth_receive
                0x000850e0                eth_try_another
                0x0008515c                eth_init
                0x0008522c                eth_set_current
                0x000852c4                eth_get_name
                0x00085370                net_auto_load
                0x000853d4                NetSetHandler
                0x000853e4                NetSetTimeout
                0x00085418                NetStartAgain
                0x00085548                NetSendPacket
                0x0008554c                NetCksum
                0x00085580                NetCksumOk
                0x000855a4                NetEthHdrSize
                0x000855e0                NetSetEther
                0x00085688                NetReceive
                0x00085b74                ArpRequest
                0x00085c60                ArpTimeoutCheck
                0x00085cd8                PingSend
                0x00085e14                NetSetIP
                0x00085f10                NetSendUDPPacket
                0x0008604c                copy_filename
                0x00086090                random_port
                0x000860b0                ip_to_string
                0x000860e8                VLAN_to_string
                0x00086134                string_to_VLAN
                0x0008617c                getenv_VLAN
                0x0008618c                NetLoop
                0x000871f8                NfsStart
                0x00087934                TftpStart
                0x00088314                RecoverRequest
 .text          0x000883c4     0x2188 board/mv_ebu/axp/libaxp.o
                0x0008847c                do_bios
                0x00088bf4                do_sar
                0x00089474                mv_get_arch_number
                0x000894a0                setBoardEnv
                0x00089600                mv_cpu_init
                0x00089a48                mv_set_power_scheme
                0x00089af0                save_env
                0x00089b60                restore_env
                0x00089bc0                do_stage_boot
                0x0008a300                do_warmRst
                0x0008a4d0                sram_init_cmd
 .text          0x0008a54c       0x28 /home/tigerg/Public/axp/uboot/2013Q2/u-boot-2011.12-2013_Q2.1/arch/arm/lib/eabi_compat.o
                0x0008a54c                raise
                0x0008a56c                __aeabi_unwind_cpp_pr0
                0x0008a570                __aeabi_unwind_cpp_pr1
 .text          0x0008a574      0x20c /home/tigerg/Public/axp/uboot/2013Q2/toolchain/Marvell_toolchain_201301/armv7-marvell-linux-gnueabi-softfp_i686/bin/../lib/gcc/arm-marvell-linux-gnueabi/4.6.4/libgcc.a(_udivsi3.o)
                0x0008a574                __udivsi3
                0x0008a574                __aeabi_uidiv
                0x0008a760                __aeabi_uidivmod
 .text          0x0008a780      0x240 /home/tigerg/Public/axp/uboot/2013Q2/toolchain/Marvell_toolchain_201301/armv7-marvell-linux-gnueabi-softfp_i686/bin/../lib/gcc/arm-marvell-linux-gnueabi/4.6.4/libgcc.a(_divsi3.o)
                0x0008a780                __aeabi_idiv
                0x0008a780                __divsi3
                0x0008a9a0                __aeabi_idivmod
 .text          0x0008a9c0       0x1c /home/tigerg/Public/axp/uboot/2013Q2/toolchain/Marvell_toolchain_201301/armv7-marvell-linux-gnueabi-softfp_i686/bin/../lib/gcc/arm-marvell-linux-gnueabi/4.6.4/libgcc.a(_lshrdi3.o)
                0x0008a9c0                __aeabi_llsr
                0x0008a9c0                __lshrdi3
 .text          0x0008a9dc       0x1c /home/tigerg/Public/axp/uboot/2013Q2/toolchain/Marvell_toolchain_201301/armv7-marvell-linux-gnueabi-softfp_i686/bin/../lib/gcc/arm-marvell-linux-gnueabi/4.6.4/libgcc.a(_ashrdi3.o)
                0x0008a9dc                __ashrdi3
                0x0008a9dc                __aeabi_lasr
 .text          0x0008a9f8       0x1c /home/tigerg/Public/axp/uboot/2013Q2/toolchain/Marvell_toolchain_201301/armv7-marvell-linux-gnueabi-softfp_i686/bin/../lib/gcc/arm-marvell-linux-gnueabi/4.6.4/libgcc.a(_ashldi3.o)
                0x0008a9f8                __ashldi3
                0x0008a9f8                __aeabi_llsl
 .text          0x0008aa14       0x3c /home/tigerg/Public/axp/uboot/2013Q2/toolchain/Marvell_toolchain_201301/armv7-marvell-linux-gnueabi-softfp_i686/bin/../lib/gcc/arm-marvell-linux-gnueabi/4.6.4/libgcc.a(_aeabi_uldivmod.o)
                0x0008aa14                __aeabi_uldivmod
 .text          0x0008aa50       0x10 /home/tigerg/Public/axp/uboot/2013Q2/toolchain/Marvell_toolchain_201301/armv7-marvell-linux-gnueabi-softfp_i686/bin/../lib/gcc/arm-marvell-linux-gnueabi/4.6.4/libgcc.a(_dvmd_lnx.o)
                0x0008aa50                __aeabi_ldiv0
                0x0008aa50                __aeabi_idiv0
 .text          0x0008aa60       0x80 /home/tigerg/Public/axp/uboot/2013Q2/toolchain/Marvell_toolchain_201301/armv7-marvell-linux-gnueabi-softfp_i686/bin/../lib/gcc/arm-marvell-linux-gnueabi/4.6.4/libgcc.a(bpabi.o)
                0x0008aa60                __gnu_ldivmod_helper
                0x0008aaa0                __gnu_uldivmod_helper
 .text          0x0008aae0      0x490 /home/tigerg/Public/axp/uboot/2013Q2/toolchain/Marvell_toolchain_201301/armv7-marvell-linux-gnueabi-softfp_i686/bin/../lib/gcc/arm-marvell-linux-gnueabi/4.6.4/libgcc.a(_divdi3.o)
                0x0008aae0                __divdi3
 .text          0x0008af70      0x42c /home/tigerg/Public/axp/uboot/2013Q2/toolchain/Marvell_toolchain_201301/armv7-marvell-linux-gnueabi-softfp_i686/bin/../lib/gcc/arm-marvell-linux-gnueabi/4.6.4/libgcc.a(_udivdi3.o)
                0x0008af70                __udivdi3

.glue_7         0x0008b39c        0x0
 .glue_7        0x00000000        0x0 linker stubs

.glue_7t        0x0008b39c        0x0
 .glue_7t       0x00000000        0x0 linker stubs

.vfp11_veneer   0x0008b39c        0x0
 .vfp11_veneer  0x00000000        0x0 linker stubs

.v4_bx          0x0008b39c        0x0
 .v4_bx         0x00000000        0x0 linker stubs

.iplt           0x0008b39c        0x0
 .iplt          0x00000000        0x0 arch/arm/cpu/armv7/start.o
                0x0008b39c                . = ALIGN (0x4)

.rodata         0x0008b39c    0x1fad4
 *(SORT(.rodata*))
 .rodata        0x0008b39c       0x80 arch/arm/lib/libarm.o
 .rodata        0x0008b41c      0xcfd board/mv_ebu/common/libmv_ebu.o
 *fill*         0x0008c119        0x3 00
 .rodata        0x0008c11c      0x5e0 common/libcommon.o
                0x0008c2c0                version_string
                0x0008c322                default_environment
 .rodata        0x0008c6fc       0x7f disk/libdisk.o
 *fill*         0x0008c77b        0x1 00
 .rodata        0x0008c77c       0x50 drivers/mmc/libmmc.o
 .rodata        0x0008c7cc      0x65c drivers/mtd/nand/libnand.o
                0x0008c7d4                nand_manuf_ids
                0x0008c824                nand_flash_ids
 .rodata        0x0008ce28      0x118 drivers/mtd/spi/libspi_flash.o
 .rodata        0x0008cf40      0x72c drivers/mtd/ubi/libubi.o
 .rodata        0x0008d66c      0x3b4 drivers/net/sk98lin/libsk98lin.o(skge.o)
 .rodata        0x0008da20       0x18 drivers/net/sk98lin/libsk98lin.o(skgeinit.o)
 .rodata        0x0008da38       0x30 drivers/rtc/librtc.o
 .rodata        0x0008da68       0x18 fs/fat/libfat.o
 .rodata        0x0008da80       0xd3 fs/jffs2/libjffs2.o
 *fill*         0x0008db53        0x1 00
 .rodata        0x0008db54      0x640 fs/ubifs/libubifs.o
                0x0008de7c                crc16_table
 .rodata        0x0008e194      0x827 lib/libgeneric.o
                0x0008e194                crc7_syndrome_table
                0x0008e89a                _ctype
                0x0008e9aa                hex_asc
 *fill*         0x0008e9bb        0x1 00
 .rodata        0x0008e9bc      0x9cc lib/zlib/libz.o
                0x0008f360                z_errmsg
 .rodata        0x0008f388       0x12 board/mv_ebu/axp/libaxp.o
 .rodata        0x0008f39a        0xe api/libapi.o
 .rodata        0x0008f3a8       0x16 arch/arm/cpu/armv7/libarmv7.o
 .rodata        0x0008f3be        0x5 drivers/block/libblock.o
 .rodata        0x0008f3c3       0x12 drivers/mtd/libmtd.o
 .rodata        0x0008f3d5       0x16 drivers/net/libnet.o
 .rodata        0x0008f3eb       0x3f drivers/usb/host/libusb_host.o
 .rodata        0x0008f42a        0xf fs/ext2/libext2fs.o
 .rodata        0x0008f439        0x9 lib/lzo/liblzo.o
 .rodata        0x0008f442       0x22 net/libnet.o
 .rodata.str1.1
                0x0008f464       0xab api/libapi.o
                                 0xac (size before relaxing)
 .rodata.str1.1
                0x0008f50f       0x65 arch/arm/cpu/armv7/libarmv7.o
 .rodata.str1.1
                0x0008f574      0x3a2 arch/arm/lib/libarm.o
                                0x3da (size before relaxing)
 .rodata.str1.1
                0x0008f916     0x8ec2 board/mv_ebu/common/libmv_ebu.o
                               0x94dc (size before relaxing)
 .rodata.str1.1
                0x000987d8     0x85fe common/libcommon.o
                               0x9369 (size before relaxing)
 .rodata.str1.1
                0x000a0dd6      0x76e disk/libdisk.o
                                0x7dd (size before relaxing)
 .rodata.str1.1
                0x000a1544      0x573 drivers/block/libblock.o
 .rodata.str1.1
                0x000a1ab7      0x19f drivers/mmc/libmmc.o
                                0x1ab (size before relaxing)
 .rodata.str1.1
                0x000a1c56      0x244 drivers/mtd/libmtd.o
 .rodata.str1.1
                0x000a1e9a      0xb49 drivers/mtd/nand/libnand.o
                                0xb83 (size before relaxing)
 .rodata.str1.1
                0x000a29e3       0xfa drivers/mtd/spi/libspi_flash.o
                                 0xfe (size before relaxing)
 .rodata.str1.1
                0x000a2add     0x178f drivers/mtd/ubi/libubi.o
                               0x1b60 (size before relaxing)
 .rodata.str1.1
                0x000a426c      0x46d drivers/net/libnet.o
 .rodata.str1.1
                0x000a46d9       0x48 drivers/net/sk98lin/libsk98lin.o(uboot_drv.o)
 .rodata.str1.1
                0x000a4721       0x4a drivers/net/sk98lin/libsk98lin.o(uboot_skb.o)
 .rodata.str1.1
                0x000a476b       0x67 drivers/net/sk98lin/libsk98lin.o(sky2.o)
 .rodata.str1.1
                0x000a47d2      0xbcc drivers/net/sk98lin/libsk98lin.o(skge.o)
                                0xc40 (size before relaxing)
 .rodata.str1.1
                0x000a539e       0x6c drivers/net/sk98lin/libsk98lin.o(skaddr.o)
 .rodata.str1.1
                0x000a540a      0x1fc drivers/net/sk98lin/libsk98lin.o(skgeinit.o)
 .rodata.str1.1
                0x000a5606      0x33a drivers/net/sk98lin/libsk98lin.o(skgesirq.o)
 .rodata.str1.1
                0x000a5940      0x25f drivers/net/sk98lin/libsk98lin.o(sktwsi.o)
                                0x275 (size before relaxing)
 .rodata.str1.1
                0x000a5b9f       0x17 drivers/net/sk98lin/libsk98lin.o(sklm80.o)
 .rodata.str1.1
                0x000a5bb6       0x90 drivers/net/sk98lin/libsk98lin.o(skqueue.o)
 .rodata.str1.1
                0x000a5c46      0x118 drivers/net/sk98lin/libsk98lin.o(skrlmt.o)
 .rodata.str1.1
                0x000a5d5e       0xc2 drivers/net/sk98lin/libsk98lin.o(skxmac2.o)
 .rodata.str1.1
                0x000a5e20      0x1b4 drivers/pci/libpci.o
                                0x216 (size before relaxing)
 .rodata.str1.1
                0x000a5fd4       0xdf drivers/usb/host/libusb_host.o
 .rodata.str1.1
                0x000a60b3      0x263 fs/ext2/libext2fs.o
                                0x26a (size before relaxing)
 .rodata.str1.1
                0x000a6316      0x195 fs/fat/libfat.o
                                0x1ca (size before relaxing)
 .rodata.str1.1
                0x000a64ab      0x310 fs/jffs2/libjffs2.o
                                0x323 (size before relaxing)
 .rodata.str1.1
                0x000a67bb     0x1783 fs/ubifs/libubifs.o
                               0x19a5 (size before relaxing)
 .rodata.str1.1
                0x000a7f3e      0x186 lib/libgeneric.o
                                0x1a0 (size before relaxing)
 .rodata.str1.1
                0x000a80c4      0x21c lib/zlib/libz.o
                                0x21d (size before relaxing)
 .rodata.str1.1
                0x000a82e0      0x9f8 net/libnet.o
                                0xbc7 (size before relaxing)
 .rodata.str1.1
                0x000a8cd8     0x217d board/mv_ebu/axp/libaxp.o
                               0x22de (size before relaxing)
 .rodata.str1.1
                0x000aae55       0x1b /home/tigerg/Public/axp/uboot/2013Q2/u-boot-2011.12-2013_Q2.1/arch/arm/lib/eabi_compat.o

.hash           0x000aae70       0x44
 .hash          0x000aae70       0x44 arch/arm/cpu/armv7/start.o

.ARM.extab      0x000aaeb4        0x0
 .ARM.extab     0x000aaeb4        0x0 /home/tigerg/Public/axp/uboot/2013Q2/toolchain/Marvell_toolchain_201301/armv7-marvell-linux-gnueabi-softfp_i686/bin/../lib/gcc/arm-marvell-linux-gnueabi/4.6.4/libgcc.a(bpabi.o)
 .ARM.extab     0x000aaeb4        0x0 /home/tigerg/Public/axp/uboot/2013Q2/toolchain/Marvell_toolchain_201301/armv7-marvell-linux-gnueabi-softfp_i686/bin/../lib/gcc/arm-marvell-linux-gnueabi/4.6.4/libgcc.a(_divdi3.o)
 .ARM.extab     0x000aaeb4        0x0 /home/tigerg/Public/axp/uboot/2013Q2/toolchain/Marvell_toolchain_201301/armv7-marvell-linux-gnueabi-softfp_i686/bin/../lib/gcc/arm-marvell-linux-gnueabi/4.6.4/libgcc.a(_udivdi3.o)

.ARM.exidx      0x000aaeb4       0x20
 .ARM.exidx     0x000aaeb4        0x8 /home/tigerg/Public/axp/uboot/2013Q2/toolchain/Marvell_toolchain_201301/armv7-marvell-linux-gnueabi-softfp_i686/bin/../lib/gcc/arm-marvell-linux-gnueabi/4.6.4/libgcc.a(bpabi.o)
                                 0x10 (size before relaxing)
 .ARM.exidx     0x000aaebc        0x8 /home/tigerg/Public/axp/uboot/2013Q2/toolchain/Marvell_toolchain_201301/armv7-marvell-linux-gnueabi-softfp_i686/bin/../lib/gcc/arm-marvell-linux-gnueabi/4.6.4/libgcc.a(_divdi3.o)
 .ARM.exidx     0x000aaec4       0x10 /home/tigerg/Public/axp/uboot/2013Q2/toolchain/Marvell_toolchain_201301/armv7-marvell-linux-gnueabi-softfp_i686/bin/../lib/gcc/arm-marvell-linux-gnueabi/4.6.4/libgcc.a(_udivdi3.o)
                                  0x8 (size before relaxing)
                0x000aaed4                . = ALIGN (0x4)

.data           0x000aaed8     0x4dcc
 *(.data)
 .data          0x000aaed8        0x0 arch/arm/cpu/armv7/start.o
 .data          0x000aaed8       0x64 api/libapi.o
 .data          0x000aaf3c        0x0 arch/arm/cpu/armv7/libarmv7.o
 .data          0x000aaf3c        0xc arch/arm/cpu/armv7/pj4/libpj4.o
 .data          0x000aaf48       0x24 arch/arm/lib/libarm.o
                0x000aaf48                init_sequence
 *fill*         0x000aaf6c        0x4 00
 .data          0x000aaf70     0x3490 board/mv_ebu/common/libmv_ebu.o
                0x000aaf70                pexDevBarPrioTable
                0x000aaf84                sataAddrDecPrioTab
                0x000aafc8                usbAddrDecPrioTab
                0x000aafe0                xorAddrDecPrioTap
                0x000ab014                sdmmcAddrDecPrioTab
                0x000ab02c                flashDeviceInfo
                0x000ab4a4                mvTargetDefaultsArray
                0x000ab604                gDevId
                0x000ab608                bios_modes_b0
                0x000ab658                bios_modes
                0x000ab6a8                sampleAtResetTargetArray
                0x000ab6e8                gBoardId
                0x000ab6ec                tClkRate
                0x000ab6f0                boardInfoTbl
                0x000ab71c                rd78460customerInfo
                0x000ab82c                rd78460customerInfoBoardMppConfigValue
                0x000ab850                rd78460customerInfoBoardDeCsInfo
                0x000ab860                rd78460customerInfoBoardGppInfo
                0x000ab868                rd78460customerInfoBoardMacInfo
                0x000ab898                rd78460gpInfo
                0x000ab9a8                rd78460gpInfoBoardMppConfigValue
                0x000ab9cc                rd78460gpInfoBoardDeCsInfo
                0x000ab9dc                rd78460gpInfoBoardGppInfo
                0x000ab9e4                rd78460gpInfoBoardMacInfo
                0x000aba14                rd78460gpInfoBoardTwsiDev
                0x000aba2c                db78X60amcInfo
                0x000abb3c                db78X60amcInfoBoardMppConfigValue
                0x000abb60                db78X60amcInfoBoardDeCsInfo
                0x000abb70                db78X60amcInfoBoardGppInfo
                0x000abb78                db78X60amcInfoBoardMacInfo
                0x000abba8                db78X60amcInfoBoardDebugLedIf
                0x000abbac                fpga88f78XX0Info
                0x000abcbc                fpga88f78XX0Tdm3215
                0x000abcbd                fpga88f78XX0Tdm792
                0x000abcc3                fpga88f78XX0Tdm880
                0x000abcc8                fpga88f78XX0InfoBoardMppConfigValue
                0x000abcec                fpga88f78XX0InfoBoardDeCsInfo
                0x000abcfc                fpga88f78XX0InfoBoardGppInfo
                0x000abd04                fpga88f78XX0InfoBoardMacInfo
                0x000abd34                fpga88f78XX0InfoBoardTwsiDev
                0x000abd54                db78X60pcacrev2Info
                0x000abe64                db78X60pcacrev2InfoBoardMppConfigValue
                0x000abe88                db78X60pcacrev2InfoBoardDeCsInfo
                0x000abe98                db78X60pcacrev2InfoBoardGppInfo
                0x000abea0                db78X60pcacrev2InfoBoardMacInfo
                0x000abed0                db78X60pcacrev2InfoBoardDebugLedIf
                0x000abed4                db78X60pcacInfo
                0x000abfe4                db78X60pcacTdm3215
                0x000abfe5                db78X60pcacTdm792
                0x000abfeb                db78X60pcacTdm880
                0x000abff0                db78X60pcacInfoBoardMppConfigValue
                0x000ac014                db78X60pcacInfoBoardDeCsInfo
                0x000ac024                db78X60pcacInfoBoardGppInfo
                0x000ac02c                db78X60pcacInfoBoardMacInfo
                0x000ac05c                db78X60pcacInfoBoardTwsiDev
                0x000ac07c                db78X60pcacInfoBoardDebugLedIf
                0x000ac080                rd78460ServerRev2Info
                0x000ac190                rd78460ServerRev2InfoBoardMppConfigValue
                0x000ac1b4                rd78460ServerRev2InfoBoardDeCsInfo
                0x000ac1c4                rd78460ServerRev2InfoBoardMacInfo
                0x000ac1f4                rd78460Info
                0x000ac304                rd78460InfoBoardMppConfigValue
                0x000ac328                rd78460InfoBoardDeCsInfo
                0x000ac338                rd78460InfoBoardMacInfo
                0x000ac368                rd78460nasInfo
                0x000ac478                rd78460nasInfoBoardMppConfigValue
                0x000ac49c                rd78460nasInfoBoardDeCsInfo
                0x000ac4ac                rd78460nasInfoBoardGppInfo
                0x000ac4b4                rd78460nasInfoBoardMacInfo
                0x000ac4e4                db88f78XX0rev2Info
                0x000ac5f4                db88f78XX0rev2Tdm3215
                0x000ac5f5                db88f78XX0rev2Tdm792
                0x000ac5fb                db88f78XX0rev2Tdm880
                0x000ac600                db88f78XX0rev2InfoBoardMppConfigValue
                0x000ac6b4                db88f78XX0rev2InfoBoardDeCsInfo
                0x000ac6c4                db88f78XX0rev2InfoBoardGppInfo
                0x000ac6cc                db88f78XX0rev2InfoBoardMacInfo
                0x000ac6fc                db88f78XX0rev2InfoBoardTwsiDev
                0x000ac71c                db88f6781InfoBoardDebugLedIf_rev2
                0x000ac720                db88f78XX0Info
                0x000ac830                db88f78XX0Tdm3215
                0x000ac831                db88f78XX0Tdm792
                0x000ac837                db88f78XX0Tdm880
                0x000ac83c                db88f78XX0InfoBoardMppConfigValue
                0x000ac8f0                db88f78XX0InfoBoardDeCsInfo
                0x000ac900                db88f78XX0InfoBoardGppInfo
                0x000ac910                db88f78XX0InfoBoardMacInfo
                0x000ac940                db88f78XX0InfoBoardTwsiDev
                0x000ac960                db88f6781InfoBoardDebugLedIf
                0x000ac964                pg_sz
                0x000ac9c0                cmd_text
                0x000adef8                mv_config_table
                0x000adfb8                switchMultiChipMode
                0x000adfc0                mvCpuAddrWinMap
                0x000ae3ec                ethAddrDecPrioTab
 .data          0x000ae400      0x80c common/libcommon.o
                0x000ae708                load_addr
                0x000ae70c                ShortPCIListing
                0x000aeb74                env_name_spec
                0x000aec00                stdio_names
 .data          0x000aec0c        0x0 disk/libdisk.o
 .data          0x000aec0c        0x0 drivers/block/libblock.o
 .data          0x000aec0c        0x4 drivers/mmc/libmmc.o
 .data          0x000aec10        0x0 drivers/mtd/libmtd.o
 .data          0x000aec10      0xa30 drivers/mtd/nand/libnand.o
                0x000aec10                nand_curr_device
 .data          0x000af640        0x4 drivers/mtd/spi/libspi_flash.o
                0x000af640                print1block
 .data          0x000af644        0x0 drivers/mtd/ubi/libubi.o
 .data          0x000af644      0x168 drivers/net/libnet.o
 .data          0x000af7ac        0x0 drivers/net/sk98lin/libsk98lin.o(uboot_drv.o)
 .data          0x000af7ac        0x0 drivers/net/sk98lin/libsk98lin.o(uboot_skb.o)
 .data          0x000af7ac        0x0 drivers/net/sk98lin/libsk98lin.o(sky2.o)
 .data          0x000af7ac       0x9c drivers/net/sk98lin/libsk98lin.o(skge.o)
 .data          0x000af848        0x0 drivers/net/sk98lin/libsk98lin.o(sky2le.o)
 .data          0x000af848        0x0 drivers/net/sk98lin/libsk98lin.o(skdim.o)
 .data          0x000af848        0x8 drivers/net/sk98lin/libsk98lin.o(skaddr.o)
                0x000af848                OnesHash
 .data          0x000af850        0x0 drivers/net/sk98lin/libsk98lin.o(skgeinit.o)
 .data          0x000af850        0x0 drivers/net/sk98lin/libsk98lin.o(skgesirq.o)
 .data          0x000af850        0x0 drivers/net/sk98lin/libsk98lin.o(sktwsi.o)
 .data          0x000af850        0x0 drivers/net/sk98lin/libsk98lin.o(sklm80.o)
 .data          0x000af850        0x0 drivers/net/sk98lin/libsk98lin.o(skqueue.o)
 .data          0x000af850       0x12 drivers/net/sk98lin/libsk98lin.o(skrlmt.o)
                0x000af850                BridgeMcAddr
                0x000af856                SkRlmtMcAddr
                0x000af85c                BcAddr
 .data          0x000af862        0x0 drivers/net/sk98lin/libsk98lin.o(sktimer.o)
 .data          0x000af862        0x0 drivers/net/sk98lin/libsk98lin.o(skxmac2.o)
 .data          0x000af862        0x0 drivers/net/sk98lin/libsk98lin.o(skgehwt.o)
 .data          0x000af862        0x0 drivers/pci/libpci.o
 .data          0x000af862        0x0 drivers/pcmcia/libpcmcia.o
 *fill*         0x000af862        0x2 00
 .data          0x000af864       0x30 drivers/rtc/librtc.o
 .data          0x000af894       0x36 drivers/usb/host/libusb_host.o
 *fill*         0x000af8ca        0x2 00
 .data          0x000af8cc        0x8 fs/ext2/libext2fs.o
                0x000af8cc                indir1_blkno
                0x000af8d0                indir2_blkno
 .data          0x000af8d4      0x208 fs/fat/libfat.o
                0x000af8d8                file_cwd
 .data          0x000afadc        0x0 fs/jffs2/libjffs2.o
 .data          0x000afadc       0x50 fs/ubifs/libubifs.o
 .data          0x000afb2c        0x0 lib/libgeneric.o
 .data          0x000afb2c        0x0 lib/lzo/liblzo.o
 .data          0x000afb2c        0x0 lib/zlib/libz.o
 .data          0x000afb2c       0x28 net/libnet.o
                0x000afb2c                NetOurVLAN
                0x000afb2e                NetOurNativeVLAN
                0x000afb30                NetBcastAddr
                0x000afb4c                TftpRRQTimeoutCountMax
                0x000afb50                TftpRRQTimeoutMSecs
 .data          0x000afb54      0x150 board/mv_ebu/axp/libaxp.o
                0x000afb54                freq_modes_B0
                0x000afbf4                freq_modes
                0x000afc94                MV_GBEx_PORT_RXQ_CONFIG_REG
 .data          0x000afca4        0x0 /home/tigerg/Public/axp/uboot/2013Q2/u-boot-2011.12-2013_Q2.1/arch/arm/lib/eabi_compat.o
 .data          0x000afca4        0x0 /home/tigerg/Public/axp/uboot/2013Q2/toolchain/Marvell_toolchain_201301/armv7-marvell-linux-gnueabi-softfp_i686/bin/../lib/gcc/arm-marvell-linux-gnueabi/4.6.4/libgcc.a(_udivsi3.o)
 .data          0x000afca4        0x0 /home/tigerg/Public/axp/uboot/2013Q2/toolchain/Marvell_toolchain_201301/armv7-marvell-linux-gnueabi-softfp_i686/bin/../lib/gcc/arm-marvell-linux-gnueabi/4.6.4/libgcc.a(_divsi3.o)
 .data          0x000afca4        0x0 /home/tigerg/Public/axp/uboot/2013Q2/toolchain/Marvell_toolchain_201301/armv7-marvell-linux-gnueabi-softfp_i686/bin/../lib/gcc/arm-marvell-linux-gnueabi/4.6.4/libgcc.a(_lshrdi3.o)
 .data          0x000afca4        0x0 /home/tigerg/Public/axp/uboot/2013Q2/toolchain/Marvell_toolchain_201301/armv7-marvell-linux-gnueabi-softfp_i686/bin/../lib/gcc/arm-marvell-linux-gnueabi/4.6.4/libgcc.a(_ashrdi3.o)
 .data          0x000afca4        0x0 /home/tigerg/Public/axp/uboot/2013Q2/toolchain/Marvell_toolchain_201301/armv7-marvell-linux-gnueabi-softfp_i686/bin/../lib/gcc/arm-marvell-linux-gnueabi/4.6.4/libgcc.a(_ashldi3.o)
 .data          0x000afca4        0x0 /home/tigerg/Public/axp/uboot/2013Q2/toolchain/Marvell_toolchain_201301/armv7-marvell-linux-gnueabi-softfp_i686/bin/../lib/gcc/arm-marvell-linux-gnueabi/4.6.4/libgcc.a(_aeabi_uldivmod.o)
 .data          0x000afca4        0x0 /home/tigerg/Public/axp/uboot/2013Q2/toolchain/Marvell_toolchain_201301/armv7-marvell-linux-gnueabi-softfp_i686/bin/../lib/gcc/arm-marvell-linux-gnueabi/4.6.4/libgcc.a(_dvmd_lnx.o)
 .data          0x000afca4        0x0 /home/tigerg/Public/axp/uboot/2013Q2/toolchain/Marvell_toolchain_201301/armv7-marvell-linux-gnueabi-softfp_i686/bin/../lib/gcc/arm-marvell-linux-gnueabi/4.6.4/libgcc.a(bpabi.o)
 .data          0x000afca4        0x0 /home/tigerg/Public/axp/uboot/2013Q2/toolchain/Marvell_toolchain_201301/armv7-marvell-linux-gnueabi-softfp_i686/bin/../lib/gcc/arm-marvell-linux-gnueabi/4.6.4/libgcc.a(_divdi3.o)
 .data          0x000afca4        0x0 /home/tigerg/Public/axp/uboot/2013Q2/toolchain/Marvell_toolchain_201301/armv7-marvell-linux-gnueabi-softfp_i686/bin/../lib/gcc/arm-marvell-linux-gnueabi/4.6.4/libgcc.a(_udivdi3.o)

.got            0x000afca4        0x0
 .got           0x00000000        0x0 arch/arm/cpu/armv7/start.o

.got.plt        0x000afca4        0xc
 .got.plt       0x000afca4        0xc arch/arm/cpu/armv7/start.o
                0x000afca4                _GLOBAL_OFFSET_TABLE_

.igot.plt       0x000afcb0        0x0
 .igot.plt      0x00000000        0x0 arch/arm/cpu/armv7/start.o
                0x000afcb0                . = ALIGN (0x4)
                0x000afcb0                . = .
                0x000afcb0                __u_boot_cmd_start = .

.u_boot_cmd     0x000afcb0      0xc94
 *(.u_boot_cmd)
 .u_boot_cmd    0x000afcb0      0x380 board/mv_ebu/common/libmv_ebu.o
                0x000afcb0                __u_boot_cmd_mp
                0x000afccc                __u_boot_cmd_se
                0x000afce8                __u_boot_cmd_me
                0x000afd04                __u_boot_cmd_sp
                0x000afd20                __u_boot_cmd_diskboot
                0x000afd3c                __u_boot_cmd_ide
                0x000afd58                __u_boot_cmd_ts_test
                0x000afd74                __u_boot_cmd_ts_report
                0x000afd90                __u_boot_cmd_rcvr
                0x000afdac                __u_boot_cmd_whoAmI
                0x000afdc8                __u_boot_cmd_training
                0x000afde4                __u_boot_cmd_phyWrite
                0x000afe00                __u_boot_cmd_phyRead
                0x000afe1c                __u_boot_cmd_tempCmd3
                0x000afe38                __u_boot_cmd_tempCmd2
                0x000afe54                __u_boot_cmd_tempCmd1
                0x000afe70                __u_boot_cmd_tempCmd0
                0x000afe8c                __u_boot_cmd_map
                0x000afea8                __u_boot_cmd_dma
                0x000afec4                __u_boot_cmd_sg
                0x000afee0                __u_boot_cmd_temp
                0x000afefc                __u_boot_cmd_ir
                0x000aff18                __u_boot_cmd_bubt
                0x000aff34                __u_boot_cmd_resetenv
                0x000aff50                __u_boot_cmd_pciePhyWrite
                0x000aff6c                __u_boot_cmd_pciePhyRead
                0x000aff88                __u_boot_cmd_ddrPhyWrite
                0x000affa4                __u_boot_cmd_ddrPhyRead
                0x000affc0                __u_boot_cmd_amp_verify
                0x000affdc                __u_boot_cmd_amp_config
                0x000afff8                __u_boot_cmd_amp_boot
                0x000b0014                __u_boot_cmd_amp_printenv
 .u_boot_cmd    0x000b0030      0x888 common/libcommon.o
                0x000b0030                __u_boot_cmd_bdinfo
                0x000b004c                __u_boot_cmd_reset
                0x000b0068                __u_boot_cmd_go
                0x000b0084                __u_boot_cmd_iminfo
                0x000b00a0                __u_boot_cmd_bootd
                0x000b00bc                __u_boot_cmd_boot
                0x000b00d8                __u_boot_cmd_bootm
                0x000b00f4                __u_boot_cmd_coninfo
                0x000b0110                __u_boot_cmd_date
                0x000b012c                __u_boot_cmd_echo
                0x000b0148                __u_boot_cmd_eeprom
                0x000b0164                __u_boot_cmd_bootvx
                0x000b0180                __u_boot_cmd_bootelf
                0x000b019c                __u_boot_cmd_exit
                0x000b01b8                __u_boot_cmd_ext2load
                0x000b01d4                __u_boot_cmd_ext2ls
                0x000b01f0                __u_boot_cmd_fatinfo
                0x000b020c                __u_boot_cmd_fatls
                0x000b0228                __u_boot_cmd_fatload
                0x000b0244                __u_boot_cmd_question_mark
                0x000b0260                __u_boot_cmd_help
                0x000b027c                __u_boot_cmd_i2c
                0x000b0298                __u_boot_cmd_itest
                0x000b02b4                __u_boot_cmd_fsinfo
                0x000b02d0                __u_boot_cmd_ls
                0x000b02ec                __u_boot_cmd_fsload
                0x000b0308                __u_boot_cmd_loadx
                0x000b0324                __u_boot_cmd_loady
                0x000b0340                __u_boot_cmd_loadb
                0x000b035c                __u_boot_cmd_loads
                0x000b0378                __u_boot_cmd_mtest
                0x000b0394                __u_boot_cmd_loop
                0x000b03b0                __u_boot_cmd_base
                0x000b03cc                __u_boot_cmd_crc32
                0x000b03e8                __u_boot_cmd_cmp
                0x000b0404                __u_boot_cmd_cp
                0x000b0420                __u_boot_cmd_mw
                0x000b043c                __u_boot_cmd_nm
                0x000b0458                __u_boot_cmd_mm
                0x000b0474                __u_boot_cmd_md
                0x000b0490                __u_boot_cmd_sleep
                0x000b04ac                __u_boot_cmd_mmc
                0x000b04c8                __u_boot_cmd_mmcinfo
                0x000b04e4                __u_boot_cmd_mtdparts
                0x000b0500                __u_boot_cmd_chpart
                0x000b051c                __u_boot_cmd_nboot
                0x000b0538                __u_boot_cmd_nand
                0x000b0554                __u_boot_cmd_ping
                0x000b0570                __u_boot_cmd_nfs
                0x000b058c                __u_boot_cmd_dhcp
                0x000b05a8                __u_boot_cmd_tftpboot
                0x000b05c4                __u_boot_cmd_bootp
                0x000b05e0                __u_boot_cmd_run
                0x000b05fc                __u_boot_cmd_setenv
                0x000b0618                __u_boot_cmd_printenv
                0x000b0634                __u_boot_cmd_editenv
                0x000b0650                __u_boot_cmd_env
                0x000b066c                __u_boot_cmd_saveenv
                0x000b0688                __u_boot_cmd_pci
                0x000b06a4                __u_boot_cmd_pxe
                0x000b06c0                __u_boot_cmd_scsiboot
                0x000b06dc                __u_boot_cmd_scsi
                0x000b06f8                __u_boot_cmd_sf
                0x000b0714                __u_boot_cmd_source
                0x000b0730                __u_boot_cmd_sspi
                0x000b074c                __u_boot_cmd_true
                0x000b0768                __u_boot_cmd_false
                0x000b0784                __u_boot_cmd_test
                0x000b07a0                __u_boot_cmd_ubi
                0x000b07bc                __u_boot_cmd_ubifsload
                0x000b07d8                __u_boot_cmd_ubifsls
                0x000b07f4                __u_boot_cmd_ubifsumount
                0x000b0810                __u_boot_cmd_ubifsmount
                0x000b082c                __u_boot_cmd_usbboot
                0x000b0848                __u_boot_cmd_usb
                0x000b0864                __u_boot_cmd_version
                0x000b0880                __u_boot_cmd_imxtract
                0x000b089c                __u_boot_cmd_showvar
 .u_boot_cmd    0x000b08b8       0x8c board/mv_ebu/axp/libaxp.o
                0x000b08b8                __u_boot_cmd_bios
                0x000b08d4                __u_boot_cmd_SatR
                0x000b08f0                __u_boot_cmd_stage_boot
                0x000b090c                __u_boot_cmd_warmRst
                0x000b0928                __u_boot_cmd_sramInit
                0x000b0944                __u_boot_cmd_end = .
                0x000b0944                . = ALIGN (0x4)
                0x000b0944                __image_copy_end = .

.rel.dyn        0x000b0944     0xe150
                0x000b0944                __rel_dyn_start = .
 *(.rel*)
 .rel.got       0x00000000        0x0 arch/arm/cpu/armv7/start.o
 .rel.plt       0x00000000        0x0 arch/arm/cpu/armv7/start.o
 .rel.iplt      0x00000000        0x0 arch/arm/cpu/armv7/start.o
 .rel.text      0x000b0944     0xb590 arch/arm/cpu/armv7/start.o
 .rel.data      0x000bbed4     0x11f0 arch/arm/cpu/armv7/start.o
 .rel.rodata    0x000bd0c4      0xb60 arch/arm/cpu/armv7/start.o
 .rel.u_boot_cmd
                0x000bdc24      0xe70 arch/arm/cpu/armv7/start.o
                0x000bea94                __rel_dyn_end = .

.dynsym         0x000bea94       0xc0
                0x000bea94                __dynsym_start = .
 *(.dynsym)
 .dynsym        0x000bea94       0xc0 arch/arm/cpu/armv7/start.o
                0x000beb54                _end = .

.bss            0x000b0944    0x51bd8
                0x000b0944                __bss_start = .
 *(.bss)
 .bss           0x000b0944        0x0 arch/arm/cpu/armv7/start.o
 .bss           0x000b0944       0x64 api/libapi.o
 .bss           0x000b09a8        0x0 arch/arm/cpu/armv7/libarmv7.o
 .bss           0x000b09a8        0x0 arch/arm/cpu/armv7/pj4/libpj4.o
 .bss           0x000b09a8        0x8 arch/arm/lib/libarm.o
                0x000b09a8                monitor_flash_len
 *fill*         0x000b09b0      0x250 00
 .bss           0x000b0c00     0x646c board/mv_ebu/common/libmv_ebu.o
                0x000b0cb8                currSpiInfo
                0x000b0cc4                dummyFlavour
                0x000b0cc8                gPexCap
                0x000b0ccc                gSerdesZ1AMode
                0x000b0cd0                rd78460customerInfoBoardModTypeInfo
                0x000b0cd8                rd78460gpInfoBoardModTypeInfo
                0x000b0ce0                db78X60amcInfoBoardModTypeInfo
                0x000b0ce0                db78X60amcTdm3215
                0x000b0ce0                db78X60amcTdm792
                0x000b0ce0                fpga88f78XX0InfoBoardModTypeInfo
                0x000b0ce0                db78X60amcInfoBoardTwsiDev
                0x000b0ce0                db78X60amcTdm880
                0x000b0ce8                db78X60pcacrev2InfoBoardModTypeInfo
                0x000b0cf0                db78X60pcacInfoBoardModTypeInfo
                0x000b0cf8                rd78460ServerRev2InfoBoardModTypeInfo
                0x000b0d00                rd78460InfoBoardModTypeInfo
                0x000b0d08                rd78460nasInfoBoardModTypeInfo
                0x000b0d10                db88f78XX0rev2InfoBoardModTypeInfo
                0x000b0d18                mvDbDisableModuleDetection_rev2
                0x000b0d1c                db88f78XX0InfoBoardModTypeInfo
                0x000b0d24                mvDbDisableModuleDetection
                0x000b2984                scan_in_progress
                0x000b2988                pci_hose
                0x000b3248                flash
                0x000b4400                request_q
                0x000b4500                response_q
                0x000b450c                sataAdapters
                0x000b6d60                prd_table
                0x000b7000                i2c_current_bus
                0x000b7008                yuk_enetaddr
                0x000b7010                amp_group_id
                0x000b7014                machine_id
                0x000b7018                image_load_addr
                0x000b701c                image_param_addr
                0x000b7020                amp_sync_boot
                0x000b7024                amp_enable
                0x000b7028                amp_barrier
                0x000b702c                amp_hw_lock_id
                0x000b7048                mvNetaPortCtrl
                0x000b704c                mvNetaHalData
 *fill*         0x000b706c        0x4 00
 .bss           0x000b7070    0x12f9c common/libcommon.o
                0x000b7070                images
                0x000b71c4                his_pad_count
                0x000b71c8                his_pad_char
                0x000b71e1                his_eol
                0x000b71e8                os_data_init
                0x000b71f8                os_data_char
                0x000b71fc                his_quote
                0x000b7200                send_ptr
                0x000b7204                send_parms
                0x000b7230                current_mtd_dev
                0x000b7234                devices
                0x000b723c                current_mtd_partnum
                0x000b7450                mtdids
                0x000b74e8                save_size
                0x000b74ec                save_addr
                0x000b9160                mem_malloc_brk
                0x000b9164                mem_malloc_start
                0x000b9168                mem_malloc_end
                0x000b91a4                env_htab
                0x000b95e8                last_return_code
                0x000b96f0                marvell_recursive_parse
                0x000b96f4                nesting_level
                0x000b9704                hist_num
                0x000b9708                hist_lines
                0x000be71c                hist_list
                0x000be76c                console_buffer
                0x000bebac                stdio_devices
                0x000bebb8                usb_started
 .bss           0x000ca00c      0x825 disk/libdisk.o
 *fill*         0x000ca831        0x3 00
 .bss           0x000ca834       0xa8 drivers/block/libblock.o
                0x000ca834                mv_host
                0x000ca83c                ataid
 .bss           0x000ca8dc        0x8 drivers/mmc/libmmc.o
 .bss           0x000ca8e4       0x88 drivers/mtd/libmtd.o
                0x000ca8e4                mtd_table
                0x000ca964                mtd_partitions
 *fill*         0x000ca96c        0x4 00
 .bss           0x000ca970      0x1e8 drivers/mtd/nand/libnand.o
                0x000caaa0                nand_info
 .bss           0x000cab58        0x4 drivers/mtd/spi/libspi_flash.o
                0x000cab58                countDot
 .bss           0x000cab5c      0x9c0 drivers/mtd/ubi/libubi.o
                0x000cab5c                ubi_devices
                0x000cabe0                ubi_class
 .bss           0x000cb51c     0x21d0 drivers/net/libnet.o
 .bss           0x000cd6ec        0x4 drivers/net/sk98lin/libsk98lin.o(uboot_drv.o)
                0x000cd6ec                sk98_inited
 .bss           0x000cd6f0      0x208 drivers/net/sk98lin/libsk98lin.o(uboot_skb.o)
                0x000cd6f0                sk_table
                0x000cd8f0                skbAlloc
                0x000cd8f4                skbFree
 .bss           0x000cd8f8        0x1 drivers/net/sk98lin/libsk98lin.o(sky2.o)
 *fill*         0x000cd8f9        0x3 00
 .bss           0x000cd8fc        0x8 drivers/net/sk98lin/libsk98lin.o(skge.o)
                0x000cd900                SkGeRootDev
 .bss           0x000cd904        0x0 drivers/net/sk98lin/libsk98lin.o(sky2le.o)
 .bss           0x000cd904        0x0 drivers/net/sk98lin/libsk98lin.o(skdim.o)
 .bss           0x000cd904       0x3c drivers/net/sk98lin/libsk98lin.o(skaddr.o)
 .bss           0x000cd940        0x0 drivers/net/sk98lin/libsk98lin.o(skgeinit.o)
 .bss           0x000cd940        0x0 drivers/net/sk98lin/libsk98lin.o(skgesirq.o)
 .bss           0x000cd940        0x0 drivers/net/sk98lin/libsk98lin.o(sktwsi.o)
 .bss           0x000cd940        0x0 drivers/net/sk98lin/libsk98lin.o(sklm80.o)
 .bss           0x000cd940        0x0 drivers/net/sk98lin/libsk98lin.o(skqueue.o)
 .bss           0x000cd940        0x0 drivers/net/sk98lin/libsk98lin.o(skrlmt.o)
 .bss           0x000cd940        0x0 drivers/net/sk98lin/libsk98lin.o(sktimer.o)
 .bss           0x000cd940        0x0 drivers/net/sk98lin/libsk98lin.o(skxmac2.o)
 .bss           0x000cd940        0x0 drivers/net/sk98lin/libsk98lin.o(skgehwt.o)
 .bss           0x000cd940       0x14 drivers/pci/libpci.o
 .bss           0x000cd954        0x0 drivers/pcmcia/libpcmcia.o
 .bss           0x000cd954        0x0 drivers/rtc/librtc.o
 *fill*         0x000cd954        0xc 00
 .bss           0x000cd960      0x1c0 drivers/usb/host/libusb_host.o
                0x000cdb00                hcor
                0x000cdb04                rootdev
                0x000cdb0c                hccr
 .bss           0x000cdb20       0x80 fs/ext2/libext2fs.o
                0x000cdb24                ext2fs_root
                0x000cdb28                indir1_block
                0x000cdb2c                indir1_size
                0x000cdb30                indir2_block
                0x000cdb34                indir2_size
                0x000cdb38                symlinknest
                0x000cdb3c                ext2fs_file
 .bss           0x000cdba0    0x30008 fs/fat/libfat.o
                0x000cdba8                get_vfatname_block
                0x000ddba8                do_fat_read_block
                0x000edba8                get_dentfromdir_block
 .bss           0x000fdba8        0x4 fs/jffs2/libjffs2.o
 .bss           0x000fdbac      0x118 fs/ubifs/libubifs.o
                0x000fdbac                ubifs_compressors
                0x000fdcb8                ubifs_sb
                0x000fdcbc                ubifs_infos
 .bss           0x000fdcc4       0x1e lib/libgeneric.o
                0x000fdcc4                errno
                0x000fdcc8                ___strtok
 .bss           0x000fdce2        0x0 lib/lzo/liblzo.o
 .bss           0x000fdce2        0x0 lib/zlib/libz.o
 *fill*         0x000fdce2        0x2 00
 .bss           0x000fdce4     0x475c net/libnet.o
                0x000fdce4                dhcp_leasetime
                0x000fdce8                NetDHCPServerIP
                0x000fdcec                BootpID
                0x000fdcf0                dhcp_state
                0x000fdcf4                BootpTry
                0x000ff4e4                NetState
                0x000ff4e8                NetPingIP
                0x000ff504                NetRestartWrap
                0x000ff50c                NetOurEther
                0x000ff514                NetRxPacket
                0x000ff518                NetRxPacketLen
                0x000ff51c                push_packet
                0x000ff520                NetOurIP
                0x000ff524                NetArpWaitPacketIP
                0x000ff528                NetArpWaitPacketMAC
                0x000ff52c                NetArpWaitReplyIP
                0x000ff530                NetArpWaitTxPacket
                0x000ff534                NetArpWaitTxPacketSize
                0x000ff538                NetTxPacket
                0x000ff53c                NetOurSubnetMask
                0x000ff540                NetOurGatewayIP
                0x000ff544                NetArpWaitTimerStart
                0x000ff548                NetArpWaitTry
                0x000ff552                NetEtherNullAddr
                0x000ff558                NetIPID
                0x000ff55e                PktBuf
                0x00101380                NetRxPackets
                0x00101390                NetArpWaitPacketBuf
                0x001019b4                NetServerIP
                0x001019b8                NetBootFileXferSize
                0x001019bc                BootFile
                0x00101a3c                NetServerEther
                0x00101a42                NetBootFileSize
                0x00101a44                NetOurRootPath
                0x00101a84                NetOurHostName
                0x00101aa4                NetOurNISDomain
                0x00101ac4                NetOurDNSIP
                0x0010242c                peerTID
                0x00102430                myTID
                0x00102434                rcvr_state
                0x00102438                packetNum
                0x0010243c                imagePtr
 .bss           0x00102440       0xdc board/mv_ebu/axp/libaxp.o
                0x00102440                enviroment
 .bss           0x0010251c        0x0 /home/tigerg/Public/axp/uboot/2013Q2/u-boot-2011.12-2013_Q2.1/arch/arm/lib/eabi_compat.o
 .bss           0x0010251c        0x0 /home/tigerg/Public/axp/uboot/2013Q2/toolchain/Marvell_toolchain_201301/armv7-marvell-linux-gnueabi-softfp_i686/bin/../lib/gcc/arm-marvell-linux-gnueabi/4.6.4/libgcc.a(_udivsi3.o)
 .bss           0x0010251c        0x0 /home/tigerg/Public/axp/uboot/2013Q2/toolchain/Marvell_toolchain_201301/armv7-marvell-linux-gnueabi-softfp_i686/bin/../lib/gcc/arm-marvell-linux-gnueabi/4.6.4/libgcc.a(_divsi3.o)
 .bss           0x0010251c        0x0 /home/tigerg/Public/axp/uboot/2013Q2/toolchain/Marvell_toolchain_201301/armv7-marvell-linux-gnueabi-softfp_i686/bin/../lib/gcc/arm-marvell-linux-gnueabi/4.6.4/libgcc.a(_lshrdi3.o)
 .bss           0x0010251c        0x0 /home/tigerg/Public/axp/uboot/2013Q2/toolchain/Marvell_toolchain_201301/armv7-marvell-linux-gnueabi-softfp_i686/bin/../lib/gcc/arm-marvell-linux-gnueabi/4.6.4/libgcc.a(_ashrdi3.o)
 .bss           0x0010251c        0x0 /home/tigerg/Public/axp/uboot/2013Q2/toolchain/Marvell_toolchain_201301/armv7-marvell-linux-gnueabi-softfp_i686/bin/../lib/gcc/arm-marvell-linux-gnueabi/4.6.4/libgcc.a(_ashldi3.o)
 .bss           0x0010251c        0x0 /home/tigerg/Public/axp/uboot/2013Q2/toolchain/Marvell_toolchain_201301/armv7-marvell-linux-gnueabi-softfp_i686/bin/../lib/gcc/arm-marvell-linux-gnueabi/4.6.4/libgcc.a(_aeabi_uldivmod.o)
 .bss           0x0010251c        0x0 /home/tigerg/Public/axp/uboot/2013Q2/toolchain/Marvell_toolchain_201301/armv7-marvell-linux-gnueabi-softfp_i686/bin/../lib/gcc/arm-marvell-linux-gnueabi/4.6.4/libgcc.a(_dvmd_lnx.o)
 .bss           0x0010251c        0x0 /home/tigerg/Public/axp/uboot/2013Q2/toolchain/Marvell_toolchain_201301/armv7-marvell-linux-gnueabi-softfp_i686/bin/../lib/gcc/arm-marvell-linux-gnueabi/4.6.4/libgcc.a(bpabi.o)
 .bss           0x0010251c        0x0 /home/tigerg/Public/axp/uboot/2013Q2/toolchain/Marvell_toolchain_201301/armv7-marvell-linux-gnueabi-softfp_i686/bin/../lib/gcc/arm-marvell-linux-gnueabi/4.6.4/libgcc.a(_divdi3.o)
 .bss           0x0010251c        0x0 /home/tigerg/Public/axp/uboot/2013Q2/toolchain/Marvell_toolchain_201301/armv7-marvell-linux-gnueabi-softfp_i686/bin/../lib/gcc/arm-marvell-linux-gnueabi/4.6.4/libgcc.a(_udivdi3.o)
                0x0010251c                . = ALIGN (0x4)
                0x0010251c                __bss_end__ = .

.dynbss         0x000beb54        0x0 load address 0x0010251c
 .dynbss        0x00000000        0x0 arch/arm/cpu/armv7/start.o

/DISCARD/
 *(.dynstr*)
 *(.dynamic*)
 *(.plt*)
 *(.interp*)
 *(.gnu*)
Address of section .text set to 0x0
LOAD arch/arm/cpu/armv7/start.o
START GROUP
LOAD api/libapi.o
LOAD arch/arm/cpu/armv7/libarmv7.o
LOAD arch/arm/cpu/armv7/pj4/libpj4.o
LOAD arch/arm/lib/libarm.o
LOAD board/mv_ebu/common/libmv_ebu.o
LOAD common/libcommon.o
LOAD disk/libdisk.o
LOAD drivers/bios_emulator/libatibiosemu.o
LOAD drivers/block/libblock.o
LOAD drivers/dma/libdma.o
LOAD drivers/fpga/libfpga.o
LOAD drivers/gpio/libgpio.o
LOAD drivers/hwmon/libhwmon.o
LOAD drivers/i2c/libi2c.o
LOAD drivers/input/libinput.o
LOAD drivers/misc/libmisc.o
LOAD drivers/mmc/libmmc.o
LOAD drivers/mtd/libmtd.o
LOAD drivers/mtd/nand/libnand.o
LOAD drivers/mtd/onenand/libonenand.o
LOAD drivers/mtd/spi/libspi_flash.o
LOAD drivers/mtd/ubi/libubi.o
LOAD drivers/net/libnet.o
LOAD drivers/net/phy/libphy.o
LOAD drivers/net/sk98lin/libsk98lin.o
LOAD drivers/pci/libpci.o
LOAD drivers/pcmcia/libpcmcia.o
LOAD drivers/power/libpower.o
LOAD drivers/rtc/librtc.o
LOAD drivers/serial/libserial.o
LOAD drivers/spi/libspi.o
LOAD drivers/twserial/libtws.o
LOAD drivers/usb/eth/libusb_eth.o
LOAD drivers/usb/gadget/libusb_gadget.o
LOAD drivers/usb/host/libusb_host.o
LOAD drivers/usb/musb/libusb_musb.o
LOAD drivers/usb/phy/libusb_phy.o
LOAD drivers/usb/ulpi/libusb_ulpi.o
LOAD drivers/video/libvideo.o
LOAD drivers/watchdog/libwatchdog.o
LOAD fs/cramfs/libcramfs.o
LOAD fs/ext2/libext2fs.o
LOAD fs/fat/libfat.o
LOAD fs/fdos/libfdos.o
LOAD fs/jffs2/libjffs2.o
LOAD fs/reiserfs/libreiserfs.o
LOAD fs/ubifs/libubifs.o
LOAD fs/yaffs2/libyaffs2.o
LOAD lib/libfdt/libfdt.o
LOAD lib/libgeneric.o
LOAD lib/lzma/liblzma.o
LOAD lib/lzo/liblzo.o
LOAD lib/zlib/libz.o
LOAD net/libnet.o
LOAD post/libpost.o
LOAD board/mv_ebu/axp/libaxp.o
END GROUP
LOAD /home/tigerg/Public/axp/uboot/2013Q2/u-boot-2011.12-2013_Q2.1/arch/arm/lib/eabi_compat.o
LOAD /home/tigerg/Public/axp/uboot/2013Q2/toolchain/Marvell_toolchain_201301/armv7-marvell-linux-gnueabi-softfp_i686/bin/../lib/gcc/arm-marvell-linux-gnueabi/4.6.4/libgcc.a
OUTPUT(u-boot elf32-littlearm)

.ARM.attributes
                0x00000000       0x35
 .ARM.attributes
                0x00000000       0x25 arch/arm/cpu/armv7/start.o
 .ARM.attributes
                0x00000025       0x35 api/libapi.o
 .ARM.attributes
                0x0000005a       0x35 arch/arm/cpu/armv7/libarmv7.o
 .ARM.attributes
                0x0000008f       0x35 arch/arm/cpu/armv7/pj4/libpj4.o
 .ARM.attributes
                0x000000c4       0x35 arch/arm/lib/libarm.o
 .ARM.attributes
                0x000000f9       0x35 board/mv_ebu/common/libmv_ebu.o
 .ARM.attributes
                0x0000012e       0x35 common/libcommon.o
 .ARM.attributes
                0x00000163       0x35 disk/libdisk.o
 .ARM.attributes
                0x00000198       0x35 drivers/block/libblock.o
 .ARM.attributes
                0x000001cd       0x35 drivers/mmc/libmmc.o
 .ARM.attributes
                0x00000202       0x35 drivers/mtd/libmtd.o
 .ARM.attributes
                0x00000237       0x35 drivers/mtd/nand/libnand.o
 .ARM.attributes
                0x0000026c       0x35 drivers/mtd/spi/libspi_flash.o
 .ARM.attributes
                0x000002a1       0x35 drivers/mtd/ubi/libubi.o
 .ARM.attributes
                0x000002d6       0x35 drivers/net/libnet.o
 .ARM.attributes
                0x0000030b       0x35 drivers/net/sk98lin/libsk98lin.o(uboot_drv.o)
 .ARM.attributes
                0x00000340       0x35 drivers/net/sk98lin/libsk98lin.o(uboot_skb.o)
 .ARM.attributes
                0x00000375       0x35 drivers/net/sk98lin/libsk98lin.o(sky2.o)
 .ARM.attributes
                0x000003aa       0x35 drivers/net/sk98lin/libsk98lin.o(skge.o)
 .ARM.attributes
                0x000003df       0x35 drivers/net/sk98lin/libsk98lin.o(sky2le.o)
 .ARM.attributes
                0x00000414       0x35 drivers/net/sk98lin/libsk98lin.o(skdim.o)
 .ARM.attributes
                0x00000449       0x35 drivers/net/sk98lin/libsk98lin.o(skaddr.o)
 .ARM.attributes
                0x0000047e       0x35 drivers/net/sk98lin/libsk98lin.o(skgeinit.o)
 .ARM.attributes
                0x000004b3       0x35 drivers/net/sk98lin/libsk98lin.o(skgesirq.o)
 .ARM.attributes
                0x000004e8       0x35 drivers/net/sk98lin/libsk98lin.o(sktwsi.o)
 .ARM.attributes
                0x0000051d       0x35 drivers/net/sk98lin/libsk98lin.o(sklm80.o)
 .ARM.attributes
                0x00000552       0x35 drivers/net/sk98lin/libsk98lin.o(skqueue.o)
 .ARM.attributes
                0x00000587       0x35 drivers/net/sk98lin/libsk98lin.o(skrlmt.o)
 .ARM.attributes
                0x000005bc       0x35 drivers/net/sk98lin/libsk98lin.o(sktimer.o)
 .ARM.attributes
                0x000005f1       0x35 drivers/net/sk98lin/libsk98lin.o(skxmac2.o)
 .ARM.attributes
                0x00000626       0x35 drivers/net/sk98lin/libsk98lin.o(skgehwt.o)
 .ARM.attributes
                0x0000065b       0x35 drivers/pci/libpci.o
 .ARM.attributes
                0x00000690       0x35 drivers/pcmcia/libpcmcia.o
 .ARM.attributes
                0x000006c5       0x35 drivers/rtc/librtc.o
 .ARM.attributes
                0x000006fa       0x35 drivers/usb/host/libusb_host.o
 .ARM.attributes
                0x0000072f       0x35 fs/ext2/libext2fs.o
 .ARM.attributes
                0x00000764       0x35 fs/fat/libfat.o
 .ARM.attributes
                0x00000799       0x35 fs/jffs2/libjffs2.o
 .ARM.attributes
                0x000007ce       0x35 fs/ubifs/libubifs.o
 .ARM.attributes
                0x00000803       0x35 lib/libgeneric.o
 .ARM.attributes
                0x00000838       0x35 lib/lzo/liblzo.o
 .ARM.attributes
                0x0000086d       0x35 lib/zlib/libz.o
 .ARM.attributes
                0x000008a2       0x35 net/libnet.o
 .ARM.attributes
                0x000008d7       0x35 board/mv_ebu/axp/libaxp.o
 .ARM.attributes
                0x0000090c       0x35 /home/tigerg/Public/axp/uboot/2013Q2/u-boot-2011.12-2013_Q2.1/arch/arm/lib/eabi_compat.o
 .ARM.attributes
                0x00000941       0x2d /home/tigerg/Public/axp/uboot/2013Q2/toolchain/Marvell_toolchain_201301/armv7-marvell-linux-gnueabi-softfp_i686/bin/../lib/gcc/arm-marvell-linux-gnueabi/4.6.4/libgcc.a(_udivsi3.o)
 .ARM.attributes
                0x0000096e       0x2d /home/tigerg/Public/axp/uboot/2013Q2/toolchain/Marvell_toolchain_201301/armv7-marvell-linux-gnueabi-softfp_i686/bin/../lib/gcc/arm-marvell-linux-gnueabi/4.6.4/libgcc.a(_divsi3.o)
 .ARM.attributes
                0x0000099b       0x2d /home/tigerg/Public/axp/uboot/2013Q2/toolchain/Marvell_toolchain_201301/armv7-marvell-linux-gnueabi-softfp_i686/bin/../lib/gcc/arm-marvell-linux-gnueabi/4.6.4/libgcc.a(_lshrdi3.o)
 .ARM.attributes
                0x000009c8       0x2d /home/tigerg/Public/axp/uboot/2013Q2/toolchain/Marvell_toolchain_201301/armv7-marvell-linux-gnueabi-softfp_i686/bin/../lib/gcc/arm-marvell-linux-gnueabi/4.6.4/libgcc.a(_ashrdi3.o)
 .ARM.attributes
                0x000009f5       0x2d /home/tigerg/Public/axp/uboot/2013Q2/toolchain/Marvell_toolchain_201301/armv7-marvell-linux-gnueabi-softfp_i686/bin/../lib/gcc/arm-marvell-linux-gnueabi/4.6.4/libgcc.a(_ashldi3.o)
 .ARM.attributes
                0x00000a22       0x2d /home/tigerg/Public/axp/uboot/2013Q2/toolchain/Marvell_toolchain_201301/armv7-marvell-linux-gnueabi-softfp_i686/bin/../lib/gcc/arm-marvell-linux-gnueabi/4.6.4/libgcc.a(_aeabi_uldivmod.o)
 .ARM.attributes
                0x00000a4f       0x2d /home/tigerg/Public/axp/uboot/2013Q2/toolchain/Marvell_toolchain_201301/armv7-marvell-linux-gnueabi-softfp_i686/bin/../lib/gcc/arm-marvell-linux-gnueabi/4.6.4/libgcc.a(_dvmd_lnx.o)
 .ARM.attributes
                0x00000a7c       0x3f /home/tigerg/Public/axp/uboot/2013Q2/toolchain/Marvell_toolchain_201301/armv7-marvell-linux-gnueabi-softfp_i686/bin/../lib/gcc/arm-marvell-linux-gnueabi/4.6.4/libgcc.a(bpabi.o)
 .ARM.attributes
                0x00000abb       0x3f /home/tigerg/Public/axp/uboot/2013Q2/toolchain/Marvell_toolchain_201301/armv7-marvell-linux-gnueabi-softfp_i686/bin/../lib/gcc/arm-marvell-linux-gnueabi/4.6.4/libgcc.a(_divdi3.o)
 .ARM.attributes
                0x00000afa       0x3f /home/tigerg/Public/axp/uboot/2013Q2/toolchain/Marvell_toolchain_201301/armv7-marvell-linux-gnueabi-softfp_i686/bin/../lib/gcc/arm-marvell-linux-gnueabi/4.6.4/libgcc.a(_udivdi3.o)

.comment        0x00000000       0x5d
 .comment       0x00000000       0x5d api/libapi.o
                                0x1d6 (size before relaxing)
 .comment       0x00000000      0x11a arch/arm/cpu/armv7/libarmv7.o
 .comment       0x00000000       0x5e arch/arm/cpu/armv7/pj4/libpj4.o
 .comment       0x00000000      0x234 arch/arm/lib/libarm.o
 .comment       0x00000000     0x1a70 board/mv_ebu/common/libmv_ebu.o
 .comment       0x00000000     0x13d4 common/libcommon.o
 .comment       0x00000000      0x178 disk/libdisk.o
 .comment       0x00000000       0x5e drivers/block/libblock.o
 .comment       0x00000000       0xbc drivers/mmc/libmmc.o
 .comment       0x00000000       0xbc drivers/mtd/libmtd.o
 .comment       0x00000000      0x234 drivers/mtd/nand/libnand.o
 .comment       0x00000000      0x11a drivers/mtd/spi/libspi_flash.o
 .comment       0x00000000      0x468 drivers/mtd/ubi/libubi.o
 .comment       0x00000000       0xbc drivers/net/libnet.o
 .comment       0x00000000       0x5e drivers/net/sk98lin/libsk98lin.o(uboot_drv.o)
 .comment       0x00000000       0x5e drivers/net/sk98lin/libsk98lin.o(uboot_skb.o)
 .comment       0x00000000       0x5e drivers/net/sk98lin/libsk98lin.o(sky2.o)
 .comment       0x00000000       0x5e drivers/net/sk98lin/libsk98lin.o(skge.o)
 .comment       0x00000000       0x5e drivers/net/sk98lin/libsk98lin.o(sky2le.o)
 .comment       0x00000000       0x5e drivers/net/sk98lin/libsk98lin.o(skdim.o)
 .comment       0x00000000       0x5e drivers/net/sk98lin/libsk98lin.o(skaddr.o)
 .comment       0x00000000       0x5e drivers/net/sk98lin/libsk98lin.o(skgeinit.o)
 .comment       0x00000000       0x5e drivers/net/sk98lin/libsk98lin.o(skgesirq.o)
 .comment       0x00000000       0x5e drivers/net/sk98lin/libsk98lin.o(sktwsi.o)
 .comment       0x00000000       0x5e drivers/net/sk98lin/libsk98lin.o(sklm80.o)
 .comment       0x00000000       0x5e drivers/net/sk98lin/libsk98lin.o(skqueue.o)
 .comment       0x00000000       0x5e drivers/net/sk98lin/libsk98lin.o(skrlmt.o)
 .comment       0x00000000       0x5e drivers/net/sk98lin/libsk98lin.o(sktimer.o)
 .comment       0x00000000       0x5e drivers/net/sk98lin/libsk98lin.o(skxmac2.o)
 .comment       0x00000000       0x5e drivers/net/sk98lin/libsk98lin.o(skgehwt.o)
 .comment       0x00000000      0x11a drivers/pci/libpci.o
 .comment       0x00000000       0xbc drivers/pcmcia/libpcmcia.o
 .comment       0x00000000       0x5e drivers/rtc/librtc.o
 .comment       0x00000000       0x5e drivers/usb/host/libusb_host.o
 .comment       0x00000000       0xbc fs/ext2/libext2fs.o
 .comment       0x00000000       0xbc fs/fat/libfat.o
 .comment       0x00000000      0x1d6 fs/jffs2/libjffs2.o
 .comment       0x00000000      0x69c fs/ubifs/libubifs.o
 .comment       0x00000000      0x6fa lib/libgeneric.o
 .comment       0x00000000       0x5e lib/lzo/liblzo.o
 .comment       0x00000000       0x5e lib/zlib/libz.o
 .comment       0x00000000      0x234 net/libnet.o
 .comment       0x00000000      0x234 board/mv_ebu/axp/libaxp.o
 .comment       0x00000000       0x5e /home/tigerg/Public/axp/uboot/2013Q2/u-boot-2011.12-2013_Q2.1/arch/arm/lib/eabi_compat.o

.note.GNU-stack
                0x00000000        0x0
 .note.GNU-stack
                0x00000000        0x0 api/libapi.o
 .note.GNU-stack
                0x00000000        0x0 arch/arm/cpu/armv7/libarmv7.o
 .note.GNU-stack
                0x00000000        0x0 arch/arm/cpu/armv7/pj4/libpj4.o
 .note.GNU-stack
                0x00000000        0x0 arch/arm/lib/libarm.o
 .note.GNU-stack
                0x00000000        0x0 board/mv_ebu/common/libmv_ebu.o
 .note.GNU-stack
                0x00000000        0x0 common/libcommon.o
 .note.GNU-stack
                0x00000000        0x0 disk/libdisk.o
 .note.GNU-stack
                0x00000000        0x0 drivers/block/libblock.o
 .note.GNU-stack
                0x00000000        0x0 drivers/mmc/libmmc.o
 .note.GNU-stack
                0x00000000        0x0 drivers/mtd/libmtd.o
 .note.GNU-stack
                0x00000000        0x0 drivers/mtd/nand/libnand.o
 .note.GNU-stack
                0x00000000        0x0 drivers/mtd/spi/libspi_flash.o
 .note.GNU-stack
                0x00000000        0x0 drivers/mtd/ubi/libubi.o
 .note.GNU-stack
                0x00000000        0x0 drivers/net/libnet.o
 .note.GNU-stack
                0x00000000        0x0 drivers/net/sk98lin/libsk98lin.o(uboot_drv.o)
 .note.GNU-stack
                0x00000000        0x0 drivers/net/sk98lin/libsk98lin.o(uboot_skb.o)
 .note.GNU-stack
                0x00000000        0x0 drivers/net/sk98lin/libsk98lin.o(sky2.o)
 .note.GNU-stack
                0x00000000        0x0 drivers/net/sk98lin/libsk98lin.o(skge.o)
 .note.GNU-stack
                0x00000000        0x0 drivers/net/sk98lin/libsk98lin.o(sky2le.o)
 .note.GNU-stack
                0x00000000        0x0 drivers/net/sk98lin/libsk98lin.o(skdim.o)
 .note.GNU-stack
                0x00000000        0x0 drivers/net/sk98lin/libsk98lin.o(skaddr.o)
 .note.GNU-stack
                0x00000000        0x0 drivers/net/sk98lin/libsk98lin.o(skgeinit.o)
 .note.GNU-stack
                0x00000000        0x0 drivers/net/sk98lin/libsk98lin.o(skgesirq.o)
 .note.GNU-stack
                0x00000000        0x0 drivers/net/sk98lin/libsk98lin.o(sktwsi.o)
 .note.GNU-stack
                0x00000000        0x0 drivers/net/sk98lin/libsk98lin.o(sklm80.o)
 .note.GNU-stack
                0x00000000        0x0 drivers/net/sk98lin/libsk98lin.o(skqueue.o)
 .note.GNU-stack
                0x00000000        0x0 drivers/net/sk98lin/libsk98lin.o(skrlmt.o)
 .note.GNU-stack
                0x00000000        0x0 drivers/net/sk98lin/libsk98lin.o(sktimer.o)
 .note.GNU-stack
                0x00000000        0x0 drivers/net/sk98lin/libsk98lin.o(skxmac2.o)
 .note.GNU-stack
                0x00000000        0x0 drivers/net/sk98lin/libsk98lin.o(skgehwt.o)
 .note.GNU-stack
                0x00000000        0x0 drivers/pci/libpci.o
 .note.GNU-stack
                0x00000000        0x0 drivers/pcmcia/libpcmcia.o
 .note.GNU-stack
                0x00000000        0x0 drivers/rtc/librtc.o
 .note.GNU-stack
                0x00000000        0x0 drivers/usb/host/libusb_host.o
 .note.GNU-stack
                0x00000000        0x0 fs/ext2/libext2fs.o
 .note.GNU-stack
                0x00000000        0x0 fs/fat/libfat.o
 .note.GNU-stack
                0x00000000        0x0 fs/jffs2/libjffs2.o
 .note.GNU-stack
                0x00000000        0x0 fs/ubifs/libubifs.o
 .note.GNU-stack
                0x00000000        0x0 lib/libgeneric.o
 .note.GNU-stack
                0x00000000        0x0 lib/lzo/liblzo.o
 .note.GNU-stack
                0x00000000        0x0 lib/zlib/libz.o
 .note.GNU-stack
                0x00000000        0x0 net/libnet.o
 .note.GNU-stack
                0x00000000        0x0 board/mv_ebu/axp/libaxp.o
 .note.GNU-stack
                0x00000000        0x0 /home/tigerg/Public/axp/uboot/2013Q2/u-boot-2011.12-2013_Q2.1/arch/arm/lib/eabi_compat.o
 .note.GNU-stack
                0x00000000        0x0 /home/tigerg/Public/axp/uboot/2013Q2/toolchain/Marvell_toolchain_201301/armv7-marvell-linux-gnueabi-softfp_i686/bin/../lib/gcc/arm-marvell-linux-gnueabi/4.6.4/libgcc.a(_udivsi3.o)
 .note.GNU-stack
                0x00000000        0x0 /home/tigerg/Public/axp/uboot/2013Q2/toolchain/Marvell_toolchain_201301/armv7-marvell-linux-gnueabi-softfp_i686/bin/../lib/gcc/arm-marvell-linux-gnueabi/4.6.4/libgcc.a(_divsi3.o)
 .note.GNU-stack
                0x00000000        0x0 /home/tigerg/Public/axp/uboot/2013Q2/toolchain/Marvell_toolchain_201301/armv7-marvell-linux-gnueabi-softfp_i686/bin/../lib/gcc/arm-marvell-linux-gnueabi/4.6.4/libgcc.a(_lshrdi3.o)
 .note.GNU-stack
                0x00000000        0x0 /home/tigerg/Public/axp/uboot/2013Q2/toolchain/Marvell_toolchain_201301/armv7-marvell-linux-gnueabi-softfp_i686/bin/../lib/gcc/arm-marvell-linux-gnueabi/4.6.4/libgcc.a(_ashrdi3.o)
 .note.GNU-stack
                0x00000000        0x0 /home/tigerg/Public/axp/uboot/2013Q2/toolchain/Marvell_toolchain_201301/armv7-marvell-linux-gnueabi-softfp_i686/bin/../lib/gcc/arm-marvell-linux-gnueabi/4.6.4/libgcc.a(_ashldi3.o)
 .note.GNU-stack
                0x00000000        0x0 /home/tigerg/Public/axp/uboot/2013Q2/toolchain/Marvell_toolchain_201301/armv7-marvell-linux-gnueabi-softfp_i686/bin/../lib/gcc/arm-marvell-linux-gnueabi/4.6.4/libgcc.a(_aeabi_uldivmod.o)
 .note.GNU-stack
                0x00000000        0x0 /home/tigerg/Public/axp/uboot/2013Q2/toolchain/Marvell_toolchain_201301/armv7-marvell-linux-gnueabi-softfp_i686/bin/../lib/gcc/arm-marvell-linux-gnueabi/4.6.4/libgcc.a(_dvmd_lnx.o)
 .note.GNU-stack
                0x00000000        0x0 /home/tigerg/Public/axp/uboot/2013Q2/toolchain/Marvell_toolchain_201301/armv7-marvell-linux-gnueabi-softfp_i686/bin/../lib/gcc/arm-marvell-linux-gnueabi/4.6.4/libgcc.a(bpabi.o)
 .note.GNU-stack
                0x00000000        0x0 /home/tigerg/Public/axp/uboot/2013Q2/toolchain/Marvell_toolchain_201301/armv7-marvell-linux-gnueabi-softfp_i686/bin/../lib/gcc/arm-marvell-linux-gnueabi/4.6.4/libgcc.a(_divdi3.o)
 .note.GNU-stack
                0x00000000        0x0 /home/tigerg/Public/axp/uboot/2013Q2/toolchain/Marvell_toolchain_201301/armv7-marvell-linux-gnueabi-softfp_i686/bin/../lib/gcc/arm-marvell-linux-gnueabi/4.6.4/libgcc.a(_udivdi3.o)

.debug_line     0x00000000    0x368b5
 .debug_line    0x00000000      0x125 arch/arm/cpu/armv7/start.o
 .debug_line    0x00000125      0xa28 api/libapi.o
 .debug_line    0x00000b4d      0x292 arch/arm/cpu/armv7/libarmv7.o
 .debug_line    0x00000ddf      0x246 arch/arm/cpu/armv7/pj4/libpj4.o
 .debug_line    0x00001025      0x927 arch/arm/lib/libarm.o
 .debug_line    0x0000194c    0x10b66 board/mv_ebu/common/libmv_ebu.o
 .debug_line    0x000124b2     0x9234 common/libcommon.o
 .debug_line    0x0001b6e6      0x959 disk/libdisk.o
 .debug_line    0x0001c03f      0xd4d drivers/block/libblock.o
 .debug_line    0x0001cd8c      0x928 drivers/mmc/libmmc.o
 .debug_line    0x0001d6b4      0x613 drivers/mtd/libmtd.o
 .debug_line    0x0001dcc7     0x1d4f drivers/mtd/nand/libnand.o
 .debug_line    0x0001fa16      0x687 drivers/mtd/spi/libspi_flash.o
 .debug_line    0x0002009d     0x38f4 drivers/mtd/ubi/libubi.o
 .debug_line    0x00023991     0x1099 drivers/net/libnet.o
 .debug_line    0x00024a2a      0x2d4 drivers/net/sk98lin/libsk98lin.o(uboot_drv.o)
 .debug_line    0x00024cfe       0xe8 drivers/net/sk98lin/libsk98lin.o(uboot_skb.o)
 .debug_line    0x00024de6      0x82b drivers/net/sk98lin/libsk98lin.o(sky2.o)
 .debug_line    0x00025611      0xcbc drivers/net/sk98lin/libsk98lin.o(skge.o)
 .debug_line    0x000262cd      0x296 drivers/net/sk98lin/libsk98lin.o(sky2le.o)
 .debug_line    0x00026563      0x2d0 drivers/net/sk98lin/libsk98lin.o(skdim.o)
 .debug_line    0x00026833      0x743 drivers/net/sk98lin/libsk98lin.o(skaddr.o)
 .debug_line    0x00026f76      0x8b5 drivers/net/sk98lin/libsk98lin.o(skgeinit.o)
 .debug_line    0x0002782b      0x53b drivers/net/sk98lin/libsk98lin.o(skgesirq.o)
 .debug_line    0x00027d66      0x4b3 drivers/net/sk98lin/libsk98lin.o(sktwsi.o)
 .debug_line    0x00028219      0x257 drivers/net/sk98lin/libsk98lin.o(sklm80.o)
 .debug_line    0x00028470      0x277 drivers/net/sk98lin/libsk98lin.o(skqueue.o)
 .debug_line    0x000286e7      0xce5 drivers/net/sk98lin/libsk98lin.o(skrlmt.o)
 .debug_line    0x000293cc      0x2bc drivers/net/sk98lin/libsk98lin.o(sktimer.o)
 .debug_line    0x00029688      0x72f drivers/net/sk98lin/libsk98lin.o(skxmac2.o)
 .debug_line    0x00029db7      0x272 drivers/net/sk98lin/libsk98lin.o(skgehwt.o)
 .debug_line    0x0002a029      0x6fe drivers/pci/libpci.o
 .debug_line    0x0002a727       0x3a drivers/pcmcia/libpcmcia.o
 .debug_line    0x0002a761      0x110 drivers/rtc/librtc.o
 .debug_line    0x0002a871      0x3b8 drivers/usb/host/libusb_host.o
 .debug_line    0x0002ac29      0x582 fs/ext2/libext2fs.o
 .debug_line    0x0002b1ab      0x736 fs/fat/libfat.o
 .debug_line    0x0002b8e1      0xc1a fs/jffs2/libjffs2.o
 .debug_line    0x0002c4fb     0x4ec2 fs/ubifs/libubifs.o
 .debug_line    0x000313bd     0x2088 lib/libgeneric.o
 .debug_line    0x00033445      0x3e6 lib/lzo/liblzo.o
 .debug_line    0x0003382b      0xb5d lib/zlib/libz.o
 .debug_line    0x00034388     0x1782 net/libnet.o
 .debug_line    0x00035b0a      0xd68 board/mv_ebu/axp/libaxp.o
 .debug_line    0x00036872       0x43 /home/tigerg/Public/axp/uboot/2013Q2/u-boot-2011.12-2013_Q2.1/arch/arm/lib/eabi_compat.o

.debug_info     0x00000000   0x11c407
 .debug_info    0x00000000       0x81 arch/arm/cpu/armv7/start.o
 .debug_info    0x00000081     0x227e api/libapi.o
 .debug_info    0x000022ff      0xaaa arch/arm/cpu/armv7/libarmv7.o
 .debug_info    0x00002da9      0x35c arch/arm/cpu/armv7/pj4/libpj4.o
 .debug_info    0x00003105     0x251d arch/arm/lib/libarm.o
 .debug_info    0x00005622    0x30bee board/mv_ebu/common/libmv_ebu.o
 .debug_info    0x00036210    0x2591d common/libcommon.o
 .debug_info    0x0005bb2d     0x25fd disk/libdisk.o
 .debug_info    0x0005e12a     0x4e28 drivers/block/libblock.o
 .debug_info    0x00062f52     0x215a drivers/mmc/libmmc.o
 .debug_info    0x000650ac     0x1eb7 drivers/mtd/libmtd.o
 .debug_info    0x00066f63     0x948a drivers/mtd/nand/libnand.o
 .debug_info    0x000703ed     0x128f drivers/mtd/spi/libspi_flash.o
 .debug_info    0x0007167c    0x13114 drivers/mtd/ubi/libubi.o
 .debug_info    0x00084790     0x64ef drivers/net/libnet.o
 .debug_info    0x0008ac7f     0x3bc5 drivers/net/sk98lin/libsk98lin.o(uboot_drv.o)
 .debug_info    0x0008e844      0x205 drivers/net/sk98lin/libsk98lin.o(uboot_skb.o)
 .debug_info    0x0008ea49     0x4bb2 drivers/net/sk98lin/libsk98lin.o(sky2.o)
 .debug_info    0x000935fb     0x560b drivers/net/sk98lin/libsk98lin.o(skge.o)
 .debug_info    0x00098c06     0x3d01 drivers/net/sk98lin/libsk98lin.o(sky2le.o)
 .debug_info    0x0009c907     0x3b43 drivers/net/sk98lin/libsk98lin.o(skdim.o)
 .debug_info    0x000a044a     0x44bc drivers/net/sk98lin/libsk98lin.o(skaddr.o)
 .debug_info    0x000a4906     0x6204 drivers/net/sk98lin/libsk98lin.o(skgeinit.o)
 .debug_info    0x000aab0a     0x464b drivers/net/sk98lin/libsk98lin.o(skgesirq.o)
 .debug_info    0x000af155     0x403a drivers/net/sk98lin/libsk98lin.o(sktwsi.o)
 .debug_info    0x000b318f     0x38bd drivers/net/sk98lin/libsk98lin.o(sklm80.o)
 .debug_info    0x000b6a4c     0x38f1 drivers/net/sk98lin/libsk98lin.o(skqueue.o)
 .debug_info    0x000ba33d     0x4eb8 drivers/net/sk98lin/libsk98lin.o(skrlmt.o)
 .debug_info    0x000bf1f5     0x3a16 drivers/net/sk98lin/libsk98lin.o(sktimer.o)
 .debug_info    0x000c2c0b     0x50b5 drivers/net/sk98lin/libsk98lin.o(skxmac2.o)
 .debug_info    0x000c7cc0     0x3b19 drivers/net/sk98lin/libsk98lin.o(skgehwt.o)
 .debug_info    0x000cb7d9     0x2b21 drivers/pci/libpci.o
 .debug_info    0x000ce2fa       0xe6 drivers/pcmcia/libpcmcia.o
 .debug_info    0x000ce3e0      0x25b drivers/rtc/librtc.o
 .debug_info    0x000ce63b     0x11ef drivers/usb/host/libusb_host.o
 .debug_info    0x000cf82a     0x12f2 fs/ext2/libext2fs.o
 .debug_info    0x000d0b1c     0x17c5 fs/fat/libfat.o
 .debug_info    0x000d22e1     0x2b2c fs/jffs2/libjffs2.o
 .debug_info    0x000d4e0d    0x3b1dd fs/ubifs/libubifs.o
 .debug_info    0x0010ffea     0x4397 lib/libgeneric.o
 .debug_info    0x00114381      0x7f2 lib/lzo/liblzo.o
 .debug_info    0x00114b73     0x104d lib/zlib/libz.o
 .debug_info    0x00115bc0     0x4ccb net/libnet.o
 .debug_info    0x0011a88b     0x1ab4 board/mv_ebu/axp/libaxp.o
 .debug_info    0x0011c33f       0xc8 /home/tigerg/Public/axp/uboot/2013Q2/u-boot-2011.12-2013_Q2.1/arch/arm/lib/eabi_compat.o

.debug_abbrev   0x00000000    0x242af
 .debug_abbrev  0x00000000       0x14 arch/arm/cpu/armv7/start.o
 .debug_abbrev  0x00000014      0x85b api/libapi.o
 .debug_abbrev  0x0000086f      0x393 arch/arm/cpu/armv7/libarmv7.o
 .debug_abbrev  0x00000c02      0x1b7 arch/arm/cpu/armv7/pj4/libpj4.o
 .debug_abbrev  0x00000db9      0x97c arch/arm/lib/libarm.o
 .debug_abbrev  0x00001735     0x8c42 board/mv_ebu/common/libmv_ebu.o
 .debug_abbrev  0x0000a377     0x771c common/libcommon.o
 .debug_abbrev  0x00011a93      0x949 disk/libdisk.o
 .debug_abbrev  0x000123dc      0x4cd drivers/block/libblock.o
 .debug_abbrev  0x000128a9      0x716 drivers/mmc/libmmc.o
 .debug_abbrev  0x00012fbf      0x4eb drivers/mtd/libmtd.o
 .debug_abbrev  0x000134aa     0x1070 drivers/mtd/nand/libnand.o
 .debug_abbrev  0x0001451a      0x623 drivers/mtd/spi/libspi_flash.o
 .debug_abbrev  0x00014b3d     0x24bd drivers/mtd/ubi/libubi.o
 .debug_abbrev  0x00016ffa      0x75a drivers/net/libnet.o
 .debug_abbrev  0x00017754      0x2e5 drivers/net/sk98lin/libsk98lin.o(uboot_drv.o)
 .debug_abbrev  0x00017a39      0x113 drivers/net/sk98lin/libsk98lin.o(uboot_skb.o)
 .debug_abbrev  0x00017b4c      0x425 drivers/net/sk98lin/libsk98lin.o(sky2.o)
 .debug_abbrev  0x00017f71      0x436 drivers/net/sk98lin/libsk98lin.o(skge.o)
 .debug_abbrev  0x000183a7      0x2dc drivers/net/sk98lin/libsk98lin.o(sky2le.o)
 .debug_abbrev  0x00018683      0x330 drivers/net/sk98lin/libsk98lin.o(skdim.o)
 .debug_abbrev  0x000189b3      0x3a5 drivers/net/sk98lin/libsk98lin.o(skaddr.o)
 .debug_abbrev  0x00018d58      0x424 drivers/net/sk98lin/libsk98lin.o(skgeinit.o)
 .debug_abbrev  0x0001917c      0x38e drivers/net/sk98lin/libsk98lin.o(skgesirq.o)
 .debug_abbrev  0x0001950a      0x329 drivers/net/sk98lin/libsk98lin.o(sktwsi.o)
 .debug_abbrev  0x00019833      0x21a drivers/net/sk98lin/libsk98lin.o(sklm80.o)
 .debug_abbrev  0x00019a4d      0x249 drivers/net/sk98lin/libsk98lin.o(skqueue.o)
 .debug_abbrev  0x00019c96      0x366 drivers/net/sk98lin/libsk98lin.o(skrlmt.o)
 .debug_abbrev  0x00019ffc      0x245 drivers/net/sk98lin/libsk98lin.o(sktimer.o)
 .debug_abbrev  0x0001a241      0x42e drivers/net/sk98lin/libsk98lin.o(skxmac2.o)
 .debug_abbrev  0x0001a66f      0x308 drivers/net/sk98lin/libsk98lin.o(skgehwt.o)
 .debug_abbrev  0x0001a977      0x6e3 drivers/pci/libpci.o
 .debug_abbrev  0x0001b05a       0x54 drivers/pcmcia/libpcmcia.o
 .debug_abbrev  0x0001b0ae       0xfa drivers/rtc/librtc.o
 .debug_abbrev  0x0001b1a8      0x357 drivers/usb/host/libusb_host.o
 .debug_abbrev  0x0001b4ff      0x3e4 fs/ext2/libext2fs.o
 .debug_abbrev  0x0001b8e3      0x505 fs/fat/libfat.o
 .debug_abbrev  0x0001bde8      0x7e3 fs/jffs2/libjffs2.o
 .debug_abbrev  0x0001c5cb     0x4329 fs/ubifs/libubifs.o
 .debug_abbrev  0x000208f4     0x1785 lib/libgeneric.o
 .debug_abbrev  0x00022079      0x1eb lib/lzo/liblzo.o
 .debug_abbrev  0x00022264      0x344 lib/zlib/libz.o
 .debug_abbrev  0x000225a8     0x13d9 net/libnet.o
 .debug_abbrev  0x00023981      0x8c7 board/mv_ebu/axp/libaxp.o
 .debug_abbrev  0x00024248       0x67 /home/tigerg/Public/axp/uboot/2013Q2/u-boot-2011.12-2013_Q2.1/arch/arm/lib/eabi_compat.o

.debug_aranges  0x00000000     0x1ec0
 .debug_aranges
                0x00000000       0x20 arch/arm/cpu/armv7/start.o
 .debug_aranges
                0x00000020       0xa0 api/libapi.o
 .debug_aranges
                0x000000c0       0x60 arch/arm/cpu/armv7/libarmv7.o
 .debug_aranges
                0x00000120       0x20 arch/arm/cpu/armv7/pj4/libpj4.o
 .debug_aranges
                0x00000140       0xc0 arch/arm/lib/libarm.o
 .debug_aranges
                0x00000200      0x8c0 board/mv_ebu/common/libmv_ebu.o
 .debug_aranges
                0x00000ac0      0x660 common/libcommon.o
 .debug_aranges
                0x00001120       0x80 disk/libdisk.o
 .debug_aranges
                0x000011a0       0x20 drivers/block/libblock.o
 .debug_aranges
                0x000011c0       0x40 drivers/mmc/libmmc.o
 .debug_aranges
                0x00001200       0x40 drivers/mtd/libmtd.o
 .debug_aranges
                0x00001240       0xa0 drivers/mtd/nand/libnand.o
 .debug_aranges
                0x000012e0       0x60 drivers/mtd/spi/libspi_flash.o
 .debug_aranges
                0x00001340      0x160 drivers/mtd/ubi/libubi.o
 .debug_aranges
                0x000014a0       0x40 drivers/net/libnet.o
 .debug_aranges
                0x000014e0       0x20 drivers/net/sk98lin/libsk98lin.o(uboot_drv.o)
 .debug_aranges
                0x00001500       0x20 drivers/net/sk98lin/libsk98lin.o(uboot_skb.o)
 .debug_aranges
                0x00001520       0x20 drivers/net/sk98lin/libsk98lin.o(sky2.o)
 .debug_aranges
                0x00001540       0x20 drivers/net/sk98lin/libsk98lin.o(skge.o)
 .debug_aranges
                0x00001560       0x20 drivers/net/sk98lin/libsk98lin.o(sky2le.o)
 .debug_aranges
                0x00001580       0x20 drivers/net/sk98lin/libsk98lin.o(skdim.o)
 .debug_aranges
                0x000015a0       0x20 drivers/net/sk98lin/libsk98lin.o(skaddr.o)
 .debug_aranges
                0x000015c0       0x20 drivers/net/sk98lin/libsk98lin.o(skgeinit.o)
 .debug_aranges
                0x000015e0       0x20 drivers/net/sk98lin/libsk98lin.o(skgesirq.o)
 .debug_aranges
                0x00001600       0x20 drivers/net/sk98lin/libsk98lin.o(sktwsi.o)
 .debug_aranges
                0x00001620       0x20 drivers/net/sk98lin/libsk98lin.o(sklm80.o)
 .debug_aranges
                0x00001640       0x20 drivers/net/sk98lin/libsk98lin.o(skqueue.o)
 .debug_aranges
                0x00001660       0x20 drivers/net/sk98lin/libsk98lin.o(skrlmt.o)
 .debug_aranges
                0x00001680       0x20 drivers/net/sk98lin/libsk98lin.o(sktimer.o)
 .debug_aranges
                0x000016a0       0x20 drivers/net/sk98lin/libsk98lin.o(skxmac2.o)
 .debug_aranges
                0x000016c0       0x20 drivers/net/sk98lin/libsk98lin.o(skgehwt.o)
 .debug_aranges
                0x000016e0       0x60 drivers/pci/libpci.o
 .debug_aranges
                0x00001740       0x20 drivers/rtc/librtc.o
 .debug_aranges
                0x00001760       0x20 drivers/usb/host/libusb_host.o
 .debug_aranges
                0x00001780       0x40 fs/ext2/libext2fs.o
 .debug_aranges
                0x000017c0       0x40 fs/fat/libfat.o
 .debug_aranges
                0x00001800       0xa0 fs/jffs2/libjffs2.o
 .debug_aranges
                0x000018a0      0x220 fs/ubifs/libubifs.o
 .debug_aranges
                0x00001ac0      0x220 lib/libgeneric.o
 .debug_aranges
                0x00001ce0       0x20 lib/lzo/liblzo.o
 .debug_aranges
                0x00001d00       0x20 lib/zlib/libz.o
 .debug_aranges
                0x00001d20       0xc0 net/libnet.o
 .debug_aranges
                0x00001de0       0xc0 board/mv_ebu/axp/libaxp.o
 .debug_aranges
                0x00001ea0       0x20 /home/tigerg/Public/axp/uboot/2013Q2/u-boot-2011.12-2013_Q2.1/arch/arm/lib/eabi_compat.o

.debug_frame    0x00000000    0x10dc8
 .debug_frame   0x00000000      0x484 api/libapi.o
 .debug_frame   0x00000484      0x1e0 arch/arm/cpu/armv7/libarmv7.o
 .debug_frame   0x00000664       0xec arch/arm/cpu/armv7/pj4/libpj4.o
 .debug_frame   0x00000750      0x3c8 arch/arm/lib/libarm.o
 .debug_frame   0x00000b18     0x54f8 board/mv_ebu/common/libmv_ebu.o
 .debug_frame   0x00006010     0x3324 common/libcommon.o
 .debug_frame   0x00009334      0x300 disk/libdisk.o
 .debug_frame   0x00009634      0x25c drivers/block/libblock.o
 .debug_frame   0x00009890      0x3f8 drivers/mmc/libmmc.o
 .debug_frame   0x00009c88      0x304 drivers/mtd/libmtd.o
 .debug_frame   0x00009f8c      0xa18 drivers/mtd/nand/libnand.o
 .debug_frame   0x0000a9a4      0x21c drivers/mtd/spi/libspi_flash.o
 .debug_frame   0x0000abc0      0xcf0 drivers/mtd/ubi/libubi.o
 .debug_frame   0x0000b8b0      0x4c0 drivers/net/libnet.o
 .debug_frame   0x0000bd70       0xb4 drivers/net/sk98lin/libsk98lin.o(uboot_drv.o)
 .debug_frame   0x0000be24       0x6c drivers/net/sk98lin/libsk98lin.o(uboot_skb.o)
 .debug_frame   0x0000be90      0x1a4 drivers/net/sk98lin/libsk98lin.o(sky2.o)
 .debug_frame   0x0000c034      0x350 drivers/net/sk98lin/libsk98lin.o(skge.o)
 .debug_frame   0x0000c384       0x68 drivers/net/sk98lin/libsk98lin.o(sky2le.o)
 .debug_frame   0x0000c3ec       0x9c drivers/net/sk98lin/libsk98lin.o(skdim.o)
 .debug_frame   0x0000c488      0x184 drivers/net/sk98lin/libsk98lin.o(skaddr.o)
 .debug_frame   0x0000c60c      0x260 drivers/net/sk98lin/libsk98lin.o(skgeinit.o)
 .debug_frame   0x0000c86c      0x188 drivers/net/sk98lin/libsk98lin.o(skgesirq.o)
 .debug_frame   0x0000c9f4      0x11c drivers/net/sk98lin/libsk98lin.o(sktwsi.o)
 .debug_frame   0x0000cb10       0x2c drivers/net/sk98lin/libsk98lin.o(sklm80.o)
 .debug_frame   0x0000cb3c       0x64 drivers/net/sk98lin/libsk98lin.o(skqueue.o)
 .debug_frame   0x0000cba0      0x484 drivers/net/sk98lin/libsk98lin.o(skrlmt.o)
 .debug_frame   0x0000d024       0xa8 drivers/net/sk98lin/libsk98lin.o(sktimer.o)
 .debug_frame   0x0000d0cc      0x294 drivers/net/sk98lin/libsk98lin.o(skxmac2.o)
 .debug_frame   0x0000d360       0x7c drivers/net/sk98lin/libsk98lin.o(skgehwt.o)
 .debug_frame   0x0000d3dc      0x590 drivers/pci/libpci.o
 .debug_frame   0x0000d96c       0x74 drivers/rtc/librtc.o
 .debug_frame   0x0000d9e0      0x124 drivers/usb/host/libusb_host.o
 .debug_frame   0x0000db04      0x1ac fs/ext2/libext2fs.o
 .debug_frame   0x0000dcb0      0x244 fs/fat/libfat.o
 .debug_frame   0x0000def4      0x34c fs/jffs2/libjffs2.o
 .debug_frame   0x0000e240     0x1244 fs/ubifs/libubifs.o
 .debug_frame   0x0000f484      0xa6c lib/libgeneric.o
 .debug_frame   0x0000fef0       0x80 lib/lzo/liblzo.o
 .debug_frame   0x0000ff70      0x11c lib/zlib/libz.o
 .debug_frame   0x0001008c      0xa04 net/libnet.o
 .debug_frame   0x00010a90      0x1f0 board/mv_ebu/axp/libaxp.o
 .debug_frame   0x00010c80       0x48 /home/tigerg/Public/axp/uboot/2013Q2/u-boot-2011.12-2013_Q2.1/arch/arm/lib/eabi_compat.o
 .debug_frame   0x00010cc8       0x20 /home/tigerg/Public/axp/uboot/2013Q2/toolchain/Marvell_toolchain_201301/armv7-marvell-linux-gnueabi-softfp_i686/bin/../lib/gcc/arm-marvell-linux-gnueabi/4.6.4/libgcc.a(_udivsi3.o)
 .debug_frame   0x00010ce8       0x20 /home/tigerg/Public/axp/uboot/2013Q2/toolchain/Marvell_toolchain_201301/armv7-marvell-linux-gnueabi-softfp_i686/bin/../lib/gcc/arm-marvell-linux-gnueabi/4.6.4/libgcc.a(_divsi3.o)
 .debug_frame   0x00010d08       0x50 /home/tigerg/Public/axp/uboot/2013Q2/toolchain/Marvell_toolchain_201301/armv7-marvell-linux-gnueabi-softfp_i686/bin/../lib/gcc/arm-marvell-linux-gnueabi/4.6.4/libgcc.a(bpabi.o)
 .debug_frame   0x00010d58       0x38 /home/tigerg/Public/axp/uboot/2013Q2/toolchain/Marvell_toolchain_201301/armv7-marvell-linux-gnueabi-softfp_i686/bin/../lib/gcc/arm-marvell-linux-gnueabi/4.6.4/libgcc.a(_divdi3.o)
 .debug_frame   0x00010d90       0x38 /home/tigerg/Public/axp/uboot/2013Q2/toolchain/Marvell_toolchain_201301/armv7-marvell-linux-gnueabi-softfp_i686/bin/../lib/gcc/arm-marvell-linux-gnueabi/4.6.4/libgcc.a(_udivdi3.o)

.debug_str      0x00000000    0x2282f
 .debug_str     0x00000000      0x7e3 api/libapi.o
                               0x1137 (size before relaxing)
 .debug_str     0x000007e3      0x335 arch/arm/cpu/armv7/libarmv7.o
                                0x67d (size before relaxing)
 .debug_str     0x00000b18      0x16e arch/arm/cpu/armv7/pj4/libpj4.o
                                0x25d (size before relaxing)
 .debug_str     0x00000c86      0x871 arch/arm/lib/libarm.o
                               0x1503 (size before relaxing)
 .debug_str     0x000014f7     0xd4a2 board/mv_ebu/common/libmv_ebu.o
                              0x1d719 (size before relaxing)
 .debug_str     0x0000e999     0x5bbc common/libcommon.o
                               0xf580 (size before relaxing)
 .debug_str     0x00014555      0x7dd disk/libdisk.o
                               0x125e (size before relaxing)
 .debug_str     0x00014d32     0x151f drivers/block/libblock.o
                               0x1b19 (size before relaxing)
 .debug_str     0x00016251      0x356 drivers/mmc/libmmc.o
                                0xad0 (size before relaxing)
 .debug_str     0x000165a7      0x28b drivers/mtd/libmtd.o
                                0xc16 (size before relaxing)
 .debug_str     0x00016832      0xb70 drivers/mtd/nand/libnand.o
                               0x34c5 (size before relaxing)
 .debug_str     0x000173a2      0x345 drivers/mtd/spi/libspi_flash.o
                                0x826 (size before relaxing)
 .debug_str     0x000176e7      0xe2f drivers/mtd/ubi/libubi.o
                               0x78e1 (size before relaxing)
 .debug_str     0x00018516     0x1343 drivers/net/libnet.o
                               0x1945 (size before relaxing)
 .debug_str     0x00019859     0x21be drivers/net/sk98lin/libsk98lin.o(uboot_drv.o)
                               0x262c (size before relaxing)
 .debug_str     0x0001ba17       0x56 drivers/net/sk98lin/libsk98lin.o(uboot_skb.o)
                                0x17a (size before relaxing)
 .debug_str     0x0001ba6d      0x3ca drivers/net/sk98lin/libsk98lin.o(sky2.o)
                               0x29f0 (size before relaxing)
 .debug_str     0x0001be37      0x505 drivers/net/sk98lin/libsk98lin.o(skge.o)
                               0x2cb0 (size before relaxing)
 .debug_str     0x0001c33c       0xcd drivers/net/sk98lin/libsk98lin.o(sky2le.o)
                               0x25ba (size before relaxing)
 .debug_str     0x0001c409      0x138 drivers/net/sk98lin/libsk98lin.o(skdim.o)
                               0x2628 (size before relaxing)
 .debug_str     0x0001c541      0x161 drivers/net/sk98lin/libsk98lin.o(skaddr.o)
                               0x26a3 (size before relaxing)
 .debug_str     0x0001c6a2      0x384 drivers/net/sk98lin/libsk98lin.o(skgeinit.o)
                               0x28ff (size before relaxing)
 .debug_str     0x0001ca26      0x131 drivers/net/sk98lin/libsk98lin.o(skgesirq.o)
                               0x265f (size before relaxing)
 .debug_str     0x0001cb57      0x138 drivers/net/sk98lin/libsk98lin.o(sktwsi.o)
                               0x2653 (size before relaxing)
 .debug_str     0x0001cc8f       0x1a drivers/net/sk98lin/libsk98lin.o(sklm80.o)
                               0x251d (size before relaxing)
 .debug_str     0x0001cca9       0x35 drivers/net/sk98lin/libsk98lin.o(skqueue.o)
                               0x2533 (size before relaxing)
 .debug_str     0x0001ccde      0x474 drivers/net/sk98lin/libsk98lin.o(skrlmt.o)
                               0x2a0c (size before relaxing)
 .debug_str     0x0001d152       0x66 drivers/net/sk98lin/libsk98lin.o(sktimer.o)
                               0x2576 (size before relaxing)
 .debug_str     0x0001d1b8      0x29e drivers/net/sk98lin/libsk98lin.o(skxmac2.o)
                               0x2843 (size before relaxing)
 .debug_str     0x0001d456       0x4b drivers/net/sk98lin/libsk98lin.o(skgehwt.o)
                               0x2550 (size before relaxing)
 .debug_str     0x0001d4a1      0x575 drivers/pci/libpci.o
                                0xe08 (size before relaxing)
 .debug_str     0x0001da16       0x6a drivers/pcmcia/libpcmcia.o
                                0x20d (size before relaxing)
 .debug_str     0x0001da80       0x90 drivers/rtc/librtc.o
                                0x19b (size before relaxing)
 .debug_str     0x0001db10      0x222 drivers/usb/host/libusb_host.o
                                0x89c (size before relaxing)
 .debug_str     0x0001dd32      0x5be fs/ext2/libext2fs.o
                                0x9dd (size before relaxing)
 .debug_str     0x0001e2f0      0x4e5 fs/fat/libfat.o
                                0x8f4 (size before relaxing)
 .debug_str     0x0001e7d5      0x80a fs/jffs2/libjffs2.o
                                0xf70 (size before relaxing)
 .debug_str     0x0001efdf     0x1967 fs/ubifs/libubifs.o
                              0x19fea (size before relaxing)
 .debug_str     0x00020946      0x723 lib/libgeneric.o
                               0x1d0b (size before relaxing)
 .debug_str     0x00021069      0x181 lib/lzo/liblzo.o
                                0x300 (size before relaxing)
 .debug_str     0x000211ea      0x2bb lib/zlib/libz.o
                                0x5aa (size before relaxing)
 .debug_str     0x000214a5     0x103f net/libnet.o
                               0x1f62 (size before relaxing)
 .debug_str     0x000224e4      0x302 board/mv_ebu/axp/libaxp.o
                                0xd82 (size before relaxing)
 .debug_str     0x000227e6       0x49 /home/tigerg/Public/axp/uboot/2013Q2/u-boot-2011.12-2013_Q2.1/arch/arm/lib/eabi_compat.o
                                0x13f (size before relaxing)

.debug_loc      0x00000000    0x89ae5
 .debug_loc     0x00000000     0x1204 api/libapi.o
 .debug_loc     0x00001204      0x746 arch/arm/cpu/armv7/libarmv7.o
 .debug_loc     0x0000194a      0x24c arch/arm/cpu/armv7/pj4/libpj4.o
 .debug_loc     0x00001b96      0xa4c arch/arm/lib/libarm.o
 .debug_loc     0x000025e2    0x22ec4 board/mv_ebu/common/libmv_ebu.o
 .debug_loc     0x000254a6    0x19524 common/libcommon.o
 .debug_loc     0x0003e9ca     0x1043 disk/libdisk.o
 .debug_loc     0x0003fa0d     0x38e5 drivers/block/libblock.o
 .debug_loc     0x000432f2     0x16d4 drivers/mmc/libmmc.o
 .debug_loc     0x000449c6      0xe4d drivers/mtd/libmtd.o
 .debug_loc     0x00045813     0x6806 drivers/mtd/nand/libnand.o
 .debug_loc     0x0004c019      0xdb6 drivers/mtd/spi/libspi_flash.o
 .debug_loc     0x0004cdcf     0x850e drivers/mtd/ubi/libubi.o
 .debug_loc     0x000552dd     0x4fa5 drivers/net/libnet.o
 .debug_loc     0x0005a282      0x332 drivers/net/sk98lin/libsk98lin.o(uboot_drv.o)
 .debug_loc     0x0005a5b4       0xfd drivers/net/sk98lin/libsk98lin.o(uboot_skb.o)
 .debug_loc     0x0005a6b1     0x1624 drivers/net/sk98lin/libsk98lin.o(sky2.o)
 .debug_loc     0x0005bcd5     0x2265 drivers/net/sk98lin/libsk98lin.o(skge.o)
 .debug_loc     0x0005df3a      0x3e3 drivers/net/sk98lin/libsk98lin.o(sky2le.o)
 .debug_loc     0x0005e31d      0x414 drivers/net/sk98lin/libsk98lin.o(skdim.o)
 .debug_loc     0x0005e731      0xf83 drivers/net/sk98lin/libsk98lin.o(skaddr.o)
 .debug_loc     0x0005f6b4     0x2481 drivers/net/sk98lin/libsk98lin.o(skgeinit.o)
 .debug_loc     0x00061b35     0x1297 drivers/net/sk98lin/libsk98lin.o(skgesirq.o)
 .debug_loc     0x00062dcc      0x971 drivers/net/sk98lin/libsk98lin.o(sktwsi.o)
 .debug_loc     0x0006373d      0x156 drivers/net/sk98lin/libsk98lin.o(sklm80.o)
 .debug_loc     0x00063893      0x1dd drivers/net/sk98lin/libsk98lin.o(skqueue.o)
 .debug_loc     0x00063a70     0x2568 drivers/net/sk98lin/libsk98lin.o(skrlmt.o)
 .debug_loc     0x00065fd8      0x3c0 drivers/net/sk98lin/libsk98lin.o(sktimer.o)
 .debug_loc     0x00066398     0x1a31 drivers/net/sk98lin/libsk98lin.o(skxmac2.o)
 .debug_loc     0x00067dc9      0x226 drivers/net/sk98lin/libsk98lin.o(skgehwt.o)
 .debug_loc     0x00067fef     0x2328 drivers/pci/libpci.o
 .debug_loc     0x0006a317      0x224 drivers/rtc/librtc.o
 .debug_loc     0x0006a53b      0xbf8 drivers/usb/host/libusb_host.o
 .debug_loc     0x0006b133      0xde9 fs/ext2/libext2fs.o
 .debug_loc     0x0006bf1c     0x1873 fs/fat/libfat.o
 .debug_loc     0x0006d78f     0x22ab fs/jffs2/libjffs2.o
 .debug_loc     0x0006fa3a     0xd8fe fs/ubifs/libubifs.o
 .debug_loc     0x0007d338     0x4a36 lib/libgeneric.o
 .debug_loc     0x00081d6e      0xd30 lib/lzo/liblzo.o
 .debug_loc     0x00082a9e     0x22e9 lib/zlib/libz.o
 .debug_loc     0x00084d87     0x35fd net/libnet.o
 .debug_loc     0x00088384     0x1723 board/mv_ebu/axp/libaxp.o
 .debug_loc     0x00089aa7       0x3e /home/tigerg/Public/axp/uboot/2013Q2/u-boot-2011.12-2013_Q2.1/arch/arm/lib/eabi_compat.o

.debug_ranges   0x00000000     0xabc0
 .debug_ranges  0x00000000       0x30 api/libapi.o
 .debug_ranges  0x00000030       0x90 arch/arm/cpu/armv7/libarmv7.o
 .debug_ranges  0x000000c0       0xa8 arch/arm/lib/libarm.o
 .debug_ranges  0x00000168     0x1e90 board/mv_ebu/common/libmv_ebu.o
 .debug_ranges  0x00001ff8     0x16f8 common/libcommon.o
 .debug_ranges  0x000036f0      0x120 disk/libdisk.o
 .debug_ranges  0x00003810      0xae0 drivers/block/libblock.o
 .debug_ranges  0x000042f0      0x1d0 drivers/mmc/libmmc.o
 .debug_ranges  0x000044c0      0x170 drivers/mtd/libmtd.o
 .debug_ranges  0x00004630      0x648 drivers/mtd/nand/libnand.o
 .debug_ranges  0x00004c78      0x230 drivers/mtd/spi/libspi_flash.o
 .debug_ranges  0x00004ea8      0x9f8 drivers/mtd/ubi/libubi.o
 .debug_ranges  0x000058a0      0xc78 drivers/net/libnet.o
 .debug_ranges  0x00006518      0x2e0 drivers/net/sk98lin/libsk98lin.o(sky2.o)
 .debug_ranges  0x000067f8      0x480 drivers/net/sk98lin/libsk98lin.o(skge.o)
 .debug_ranges  0x00006c78       0x60 drivers/net/sk98lin/libsk98lin.o(sky2le.o)
 .debug_ranges  0x00006cd8       0xe0 drivers/net/sk98lin/libsk98lin.o(skaddr.o)
 .debug_ranges  0x00006db8      0x400 drivers/net/sk98lin/libsk98lin.o(skgeinit.o)
 .debug_ranges  0x000071b8      0x1d8 drivers/net/sk98lin/libsk98lin.o(skgesirq.o)
 .debug_ranges  0x00007390       0xf0 drivers/net/sk98lin/libsk98lin.o(sktwsi.o)
 .debug_ranges  0x00007480       0x20 drivers/net/sk98lin/libsk98lin.o(sklm80.o)
 .debug_ranges  0x000074a0      0x138 drivers/net/sk98lin/libsk98lin.o(skrlmt.o)
 .debug_ranges  0x000075d8      0x1c0 drivers/net/sk98lin/libsk98lin.o(skxmac2.o)
 .debug_ranges  0x00007798       0x30 drivers/net/sk98lin/libsk98lin.o(skgehwt.o)
 .debug_ranges  0x000077c8       0xb8 drivers/pci/libpci.o
 .debug_ranges  0x00007880       0xa0 drivers/usb/host/libusb_host.o
 .debug_ranges  0x00007920      0x170 fs/ext2/libext2fs.o
 .debug_ranges  0x00007a90      0x170 fs/fat/libfat.o
 .debug_ranges  0x00007c00      0x418 fs/jffs2/libjffs2.o
 .debug_ranges  0x00008018     0x2000 fs/ubifs/libubifs.o
 .debug_ranges  0x0000a018      0x358 lib/libgeneric.o
 .debug_ranges  0x0000a370      0x268 lib/lzo/liblzo.o
 .debug_ranges  0x0000a5d8       0x50 lib/zlib/libz.o
 .debug_ranges  0x0000a628      0x4a8 net/libnet.o
 .debug_ranges  0x0000aad0       0xf0 board/mv_ebu/axp/libaxp.o
